
ctarget:     file format elf64-x86-64


Disassembly of section .init:

0000000000400c08 <_init>:
  400c08:	48 83 ec 08          	sub    $0x8,%rsp
  400c0c:	48 8b 05 e5 33 20 00 	mov    0x2033e5(%rip),%rax        # 603ff8 <__gmon_start__>
  400c13:	48 85 c0             	test   %rax,%rax
  400c16:	74 05                	je     400c1d <_init+0x15>
  400c18:	e8 33 02 00 00       	callq  400e50 <__gmon_start__@plt>
  400c1d:	48 83 c4 08          	add    $0x8,%rsp
  400c21:	c3                   	retq   

Disassembly of section .plt:

0000000000400c30 <.plt>:
  400c30:	ff 35 d2 33 20 00    	pushq  0x2033d2(%rip)        # 604008 <_GLOBAL_OFFSET_TABLE_+0x8>
  400c36:	ff 25 d4 33 20 00    	jmpq   *0x2033d4(%rip)        # 604010 <_GLOBAL_OFFSET_TABLE_+0x10>
  400c3c:	0f 1f 40 00          	nopl   0x0(%rax)

0000000000400c40 <__errno_location@plt>:
  400c40:	ff 25 d2 33 20 00    	jmpq   *0x2033d2(%rip)        # 604018 <__errno_location@GLIBC_2.2.5>
  400c46:	68 00 00 00 00       	pushq  $0x0
  400c4b:	e9 e0 ff ff ff       	jmpq   400c30 <.plt>

0000000000400c50 <srandom@plt>:
  400c50:	ff 25 ca 33 20 00    	jmpq   *0x2033ca(%rip)        # 604020 <srandom@GLIBC_2.2.5>
  400c56:	68 01 00 00 00       	pushq  $0x1
  400c5b:	e9 d0 ff ff ff       	jmpq   400c30 <.plt>

0000000000400c60 <strncmp@plt>:
  400c60:	ff 25 c2 33 20 00    	jmpq   *0x2033c2(%rip)        # 604028 <strncmp@GLIBC_2.2.5>
  400c66:	68 02 00 00 00       	pushq  $0x2
  400c6b:	e9 c0 ff ff ff       	jmpq   400c30 <.plt>

0000000000400c70 <strcpy@plt>:
  400c70:	ff 25 ba 33 20 00    	jmpq   *0x2033ba(%rip)        # 604030 <strcpy@GLIBC_2.2.5>
  400c76:	68 03 00 00 00       	pushq  $0x3
  400c7b:	e9 b0 ff ff ff       	jmpq   400c30 <.plt>

0000000000400c80 <puts@plt>:
  400c80:	ff 25 b2 33 20 00    	jmpq   *0x2033b2(%rip)        # 604038 <puts@GLIBC_2.2.5>
  400c86:	68 04 00 00 00       	pushq  $0x4
  400c8b:	e9 a0 ff ff ff       	jmpq   400c30 <.plt>

0000000000400c90 <write@plt>:
  400c90:	ff 25 aa 33 20 00    	jmpq   *0x2033aa(%rip)        # 604040 <write@GLIBC_2.2.5>
  400c96:	68 05 00 00 00       	pushq  $0x5
  400c9b:	e9 90 ff ff ff       	jmpq   400c30 <.plt>

0000000000400ca0 <__stack_chk_fail@plt>:
  400ca0:	ff 25 a2 33 20 00    	jmpq   *0x2033a2(%rip)        # 604048 <__stack_chk_fail@GLIBC_2.4>
  400ca6:	68 06 00 00 00       	pushq  $0x6
  400cab:	e9 80 ff ff ff       	jmpq   400c30 <.plt>

0000000000400cb0 <mmap@plt>:
  400cb0:	ff 25 9a 33 20 00    	jmpq   *0x20339a(%rip)        # 604050 <mmap@GLIBC_2.2.5>
  400cb6:	68 07 00 00 00       	pushq  $0x7
  400cbb:	e9 70 ff ff ff       	jmpq   400c30 <.plt>

0000000000400cc0 <memset@plt>:
  400cc0:	ff 25 92 33 20 00    	jmpq   *0x203392(%rip)        # 604058 <memset@GLIBC_2.2.5>
  400cc6:	68 08 00 00 00       	pushq  $0x8
  400ccb:	e9 60 ff ff ff       	jmpq   400c30 <.plt>

0000000000400cd0 <alarm@plt>:
  400cd0:	ff 25 8a 33 20 00    	jmpq   *0x20338a(%rip)        # 604060 <alarm@GLIBC_2.2.5>
  400cd6:	68 09 00 00 00       	pushq  $0x9
  400cdb:	e9 50 ff ff ff       	jmpq   400c30 <.plt>

0000000000400ce0 <close@plt>:
  400ce0:	ff 25 82 33 20 00    	jmpq   *0x203382(%rip)        # 604068 <close@GLIBC_2.2.5>
  400ce6:	68 0a 00 00 00       	pushq  $0xa
  400ceb:	e9 40 ff ff ff       	jmpq   400c30 <.plt>

0000000000400cf0 <read@plt>:
  400cf0:	ff 25 7a 33 20 00    	jmpq   *0x20337a(%rip)        # 604070 <read@GLIBC_2.2.5>
  400cf6:	68 0b 00 00 00       	pushq  $0xb
  400cfb:	e9 30 ff ff ff       	jmpq   400c30 <.plt>

0000000000400d00 <__libc_start_main@plt>:
  400d00:	ff 25 72 33 20 00    	jmpq   *0x203372(%rip)        # 604078 <__libc_start_main@GLIBC_2.2.5>
  400d06:	68 0c 00 00 00       	pushq  $0xc
  400d0b:	e9 20 ff ff ff       	jmpq   400c30 <.plt>

0000000000400d10 <signal@plt>:
  400d10:	ff 25 6a 33 20 00    	jmpq   *0x20336a(%rip)        # 604080 <signal@GLIBC_2.2.5>
  400d16:	68 0d 00 00 00       	pushq  $0xd
  400d1b:	e9 10 ff ff ff       	jmpq   400c30 <.plt>

0000000000400d20 <gethostbyname@plt>:
  400d20:	ff 25 62 33 20 00    	jmpq   *0x203362(%rip)        # 604088 <gethostbyname@GLIBC_2.2.5>
  400d26:	68 0e 00 00 00       	pushq  $0xe
  400d2b:	e9 00 ff ff ff       	jmpq   400c30 <.plt>

0000000000400d30 <__memmove_chk@plt>:
  400d30:	ff 25 5a 33 20 00    	jmpq   *0x20335a(%rip)        # 604090 <__memmove_chk@GLIBC_2.3.4>
  400d36:	68 0f 00 00 00       	pushq  $0xf
  400d3b:	e9 f0 fe ff ff       	jmpq   400c30 <.plt>

0000000000400d40 <strtol@plt>:
  400d40:	ff 25 52 33 20 00    	jmpq   *0x203352(%rip)        # 604098 <strtol@GLIBC_2.2.5>
  400d46:	68 10 00 00 00       	pushq  $0x10
  400d4b:	e9 e0 fe ff ff       	jmpq   400c30 <.plt>

0000000000400d50 <memcpy@plt>:
  400d50:	ff 25 4a 33 20 00    	jmpq   *0x20334a(%rip)        # 6040a0 <memcpy@GLIBC_2.14>
  400d56:	68 11 00 00 00       	pushq  $0x11
  400d5b:	e9 d0 fe ff ff       	jmpq   400c30 <.plt>

0000000000400d60 <time@plt>:
  400d60:	ff 25 42 33 20 00    	jmpq   *0x203342(%rip)        # 6040a8 <time@GLIBC_2.2.5>
  400d66:	68 12 00 00 00       	pushq  $0x12
  400d6b:	e9 c0 fe ff ff       	jmpq   400c30 <.plt>

0000000000400d70 <random@plt>:
  400d70:	ff 25 3a 33 20 00    	jmpq   *0x20333a(%rip)        # 6040b0 <random@GLIBC_2.2.5>
  400d76:	68 13 00 00 00       	pushq  $0x13
  400d7b:	e9 b0 fe ff ff       	jmpq   400c30 <.plt>

0000000000400d80 <_IO_getc@plt>:
  400d80:	ff 25 32 33 20 00    	jmpq   *0x203332(%rip)        # 6040b8 <_IO_getc@GLIBC_2.2.5>
  400d86:	68 14 00 00 00       	pushq  $0x14
  400d8b:	e9 a0 fe ff ff       	jmpq   400c30 <.plt>

0000000000400d90 <__isoc99_sscanf@plt>:
  400d90:	ff 25 2a 33 20 00    	jmpq   *0x20332a(%rip)        # 6040c0 <__isoc99_sscanf@GLIBC_2.7>
  400d96:	68 15 00 00 00       	pushq  $0x15
  400d9b:	e9 90 fe ff ff       	jmpq   400c30 <.plt>

0000000000400da0 <munmap@plt>:
  400da0:	ff 25 22 33 20 00    	jmpq   *0x203322(%rip)        # 6040c8 <munmap@GLIBC_2.2.5>
  400da6:	68 16 00 00 00       	pushq  $0x16
  400dab:	e9 80 fe ff ff       	jmpq   400c30 <.plt>

0000000000400db0 <__printf_chk@plt>:
  400db0:	ff 25 1a 33 20 00    	jmpq   *0x20331a(%rip)        # 6040d0 <__printf_chk@GLIBC_2.3.4>
  400db6:	68 17 00 00 00       	pushq  $0x17
  400dbb:	e9 70 fe ff ff       	jmpq   400c30 <.plt>

0000000000400dc0 <fopen@plt>:
  400dc0:	ff 25 12 33 20 00    	jmpq   *0x203312(%rip)        # 6040d8 <fopen@GLIBC_2.2.5>
  400dc6:	68 18 00 00 00       	pushq  $0x18
  400dcb:	e9 60 fe ff ff       	jmpq   400c30 <.plt>

0000000000400dd0 <getopt@plt>:
  400dd0:	ff 25 0a 33 20 00    	jmpq   *0x20330a(%rip)        # 6040e0 <getopt@GLIBC_2.2.5>
  400dd6:	68 19 00 00 00       	pushq  $0x19
  400ddb:	e9 50 fe ff ff       	jmpq   400c30 <.plt>

0000000000400de0 <strtoul@plt>:
  400de0:	ff 25 02 33 20 00    	jmpq   *0x203302(%rip)        # 6040e8 <strtoul@GLIBC_2.2.5>
  400de6:	68 1a 00 00 00       	pushq  $0x1a
  400deb:	e9 40 fe ff ff       	jmpq   400c30 <.plt>

0000000000400df0 <gethostname@plt>:
  400df0:	ff 25 fa 32 20 00    	jmpq   *0x2032fa(%rip)        # 6040f0 <gethostname@GLIBC_2.2.5>
  400df6:	68 1b 00 00 00       	pushq  $0x1b
  400dfb:	e9 30 fe ff ff       	jmpq   400c30 <.plt>

0000000000400e00 <exit@plt>:
  400e00:	ff 25 f2 32 20 00    	jmpq   *0x2032f2(%rip)        # 6040f8 <exit@GLIBC_2.2.5>
  400e06:	68 1c 00 00 00       	pushq  $0x1c
  400e0b:	e9 20 fe ff ff       	jmpq   400c30 <.plt>

0000000000400e10 <connect@plt>:
  400e10:	ff 25 ea 32 20 00    	jmpq   *0x2032ea(%rip)        # 604100 <connect@GLIBC_2.2.5>
  400e16:	68 1d 00 00 00       	pushq  $0x1d
  400e1b:	e9 10 fe ff ff       	jmpq   400c30 <.plt>

0000000000400e20 <__fprintf_chk@plt>:
  400e20:	ff 25 e2 32 20 00    	jmpq   *0x2032e2(%rip)        # 604108 <__fprintf_chk@GLIBC_2.3.4>
  400e26:	68 1e 00 00 00       	pushq  $0x1e
  400e2b:	e9 00 fe ff ff       	jmpq   400c30 <.plt>

0000000000400e30 <__sprintf_chk@plt>:
  400e30:	ff 25 da 32 20 00    	jmpq   *0x2032da(%rip)        # 604110 <__sprintf_chk@GLIBC_2.3.4>
  400e36:	68 1f 00 00 00       	pushq  $0x1f
  400e3b:	e9 f0 fd ff ff       	jmpq   400c30 <.plt>

0000000000400e40 <socket@plt>:
  400e40:	ff 25 d2 32 20 00    	jmpq   *0x2032d2(%rip)        # 604118 <socket@GLIBC_2.2.5>
  400e46:	68 20 00 00 00       	pushq  $0x20
  400e4b:	e9 e0 fd ff ff       	jmpq   400c30 <.plt>

Disassembly of section .plt.got:

0000000000400e50 <__gmon_start__@plt>:
  400e50:	ff 25 a2 31 20 00    	jmpq   *0x2031a2(%rip)        # 603ff8 <__gmon_start__>
  400e56:	66 90                	xchg   %ax,%ax

Disassembly of section .text:

0000000000400e60 <_start>:
  400e60:	31 ed                	xor    %ebp,%ebp
  400e62:	49 89 d1             	mov    %rdx,%r9
  400e65:	5e                   	pop    %rsi
  400e66:	48 89 e2             	mov    %rsp,%rdx
  400e69:	48 83 e4 f0          	and    $0xfffffffffffffff0,%rsp
  400e6d:	50                   	push   %rax
  400e6e:	54                   	push   %rsp
  400e6f:	49 c7 c0 70 2e 40 00 	mov    $0x402e70,%r8
  400e76:	48 c7 c1 00 2e 40 00 	mov    $0x402e00,%rcx
  400e7d:	48 c7 c7 0b 11 40 00 	mov    $0x40110b,%rdi
  400e84:	e8 77 fe ff ff       	callq  400d00 <__libc_start_main@plt>
  400e89:	f4                   	hlt    
  400e8a:	66 0f 1f 44 00 00    	nopw   0x0(%rax,%rax,1)

0000000000400e90 <deregister_tm_clones>:
  400e90:	b8 97 44 60 00       	mov    $0x604497,%eax
  400e95:	55                   	push   %rbp
  400e96:	48 2d 90 44 60 00    	sub    $0x604490,%rax
  400e9c:	48 83 f8 0e          	cmp    $0xe,%rax
  400ea0:	48 89 e5             	mov    %rsp,%rbp
  400ea3:	76 1b                	jbe    400ec0 <deregister_tm_clones+0x30>
  400ea5:	b8 00 00 00 00       	mov    $0x0,%eax
  400eaa:	48 85 c0             	test   %rax,%rax
  400ead:	74 11                	je     400ec0 <deregister_tm_clones+0x30>
  400eaf:	5d                   	pop    %rbp
  400eb0:	bf 90 44 60 00       	mov    $0x604490,%edi
  400eb5:	ff e0                	jmpq   *%rax
  400eb7:	66 0f 1f 84 00 00 00 	nopw   0x0(%rax,%rax,1)
  400ebe:	00 00 
  400ec0:	5d                   	pop    %rbp
  400ec1:	c3                   	retq   
  400ec2:	0f 1f 40 00          	nopl   0x0(%rax)
  400ec6:	66 2e 0f 1f 84 00 00 	nopw   %cs:0x0(%rax,%rax,1)
  400ecd:	00 00 00 

0000000000400ed0 <register_tm_clones>:
  400ed0:	be 90 44 60 00       	mov    $0x604490,%esi
  400ed5:	55                   	push   %rbp
  400ed6:	48 81 ee 90 44 60 00 	sub    $0x604490,%rsi
  400edd:	48 c1 fe 03          	sar    $0x3,%rsi
  400ee1:	48 89 e5             	mov    %rsp,%rbp
  400ee4:	48 89 f0             	mov    %rsi,%rax
  400ee7:	48 c1 e8 3f          	shr    $0x3f,%rax
  400eeb:	48 01 c6             	add    %rax,%rsi
  400eee:	48 d1 fe             	sar    %rsi
  400ef1:	74 15                	je     400f08 <register_tm_clones+0x38>
  400ef3:	b8 00 00 00 00       	mov    $0x0,%eax
  400ef8:	48 85 c0             	test   %rax,%rax
  400efb:	74 0b                	je     400f08 <register_tm_clones+0x38>
  400efd:	5d                   	pop    %rbp
  400efe:	bf 90 44 60 00       	mov    $0x604490,%edi
  400f03:	ff e0                	jmpq   *%rax
  400f05:	0f 1f 00             	nopl   (%rax)
  400f08:	5d                   	pop    %rbp
  400f09:	c3                   	retq   
  400f0a:	66 0f 1f 44 00 00    	nopw   0x0(%rax,%rax,1)

0000000000400f10 <__do_global_dtors_aux>:
  400f10:	80 3d b1 35 20 00 00 	cmpb   $0x0,0x2035b1(%rip)        # 6044c8 <completed.7585>
  400f17:	75 11                	jne    400f2a <__do_global_dtors_aux+0x1a>
  400f19:	55                   	push   %rbp
  400f1a:	48 89 e5             	mov    %rsp,%rbp
  400f1d:	e8 6e ff ff ff       	callq  400e90 <deregister_tm_clones>
  400f22:	5d                   	pop    %rbp
  400f23:	c6 05 9e 35 20 00 01 	movb   $0x1,0x20359e(%rip)        # 6044c8 <completed.7585>
  400f2a:	f3 c3                	repz retq 
  400f2c:	0f 1f 40 00          	nopl   0x0(%rax)

0000000000400f30 <frame_dummy>:
  400f30:	bf 20 3e 60 00       	mov    $0x603e20,%edi
  400f35:	48 83 3f 00          	cmpq   $0x0,(%rdi)
  400f39:	75 05                	jne    400f40 <frame_dummy+0x10>
  400f3b:	eb 93                	jmp    400ed0 <register_tm_clones>
  400f3d:	0f 1f 00             	nopl   (%rax)
  400f40:	b8 00 00 00 00       	mov    $0x0,%eax
  400f45:	48 85 c0             	test   %rax,%rax
  400f48:	74 f1                	je     400f3b <frame_dummy+0xb>
  400f4a:	55                   	push   %rbp
  400f4b:	48 89 e5             	mov    %rsp,%rbp
  400f4e:	ff d0                	callq  *%rax
  400f50:	5d                   	pop    %rbp
  400f51:	e9 7a ff ff ff       	jmpq   400ed0 <register_tm_clones>

0000000000400f56 <usage>:
  400f56:	48 83 ec 08          	sub    $0x8,%rsp
  400f5a:	48 89 fa             	mov    %rdi,%rdx
  400f5d:	83 3d a4 35 20 00 00 	cmpl   $0x0,0x2035a4(%rip)        # 604508 <is_checker>
  400f64:	74 3e                	je     400fa4 <usage+0x4e>
  400f66:	be 88 2e 40 00       	mov    $0x402e88,%esi
  400f6b:	bf 01 00 00 00       	mov    $0x1,%edi
  400f70:	b8 00 00 00 00       	mov    $0x0,%eax
  400f75:	e8 36 fe ff ff       	callq  400db0 <__printf_chk@plt>
  400f7a:	bf c0 2e 40 00       	mov    $0x402ec0,%edi
  400f7f:	e8 fc fc ff ff       	callq  400c80 <puts@plt>
  400f84:	bf f8 2f 40 00       	mov    $0x402ff8,%edi
  400f89:	e8 f2 fc ff ff       	callq  400c80 <puts@plt>
  400f8e:	bf e8 2e 40 00       	mov    $0x402ee8,%edi
  400f93:	e8 e8 fc ff ff       	callq  400c80 <puts@plt>
  400f98:	bf 12 30 40 00       	mov    $0x403012,%edi
  400f9d:	e8 de fc ff ff       	callq  400c80 <puts@plt>
  400fa2:	eb 32                	jmp    400fd6 <usage+0x80>
  400fa4:	be 2e 30 40 00       	mov    $0x40302e,%esi
  400fa9:	bf 01 00 00 00       	mov    $0x1,%edi
  400fae:	b8 00 00 00 00       	mov    $0x0,%eax
  400fb3:	e8 f8 fd ff ff       	callq  400db0 <__printf_chk@plt>
  400fb8:	bf 10 2f 40 00       	mov    $0x402f10,%edi
  400fbd:	e8 be fc ff ff       	callq  400c80 <puts@plt>
  400fc2:	bf 38 2f 40 00       	mov    $0x402f38,%edi
  400fc7:	e8 b4 fc ff ff       	callq  400c80 <puts@plt>
  400fcc:	bf 4c 30 40 00       	mov    $0x40304c,%edi
  400fd1:	e8 aa fc ff ff       	callq  400c80 <puts@plt>
  400fd6:	bf 00 00 00 00       	mov    $0x0,%edi
  400fdb:	e8 20 fe ff ff       	callq  400e00 <exit@plt>

0000000000400fe0 <initialize_target>:
  400fe0:	55                   	push   %rbp
  400fe1:	53                   	push   %rbx
  400fe2:	48 81 ec 18 21 00 00 	sub    $0x2118,%rsp
  400fe9:	89 f5                	mov    %esi,%ebp
  400feb:	64 48 8b 04 25 28 00 	mov    %fs:0x28,%rax
  400ff2:	00 00 
  400ff4:	48 89 84 24 08 21 00 	mov    %rax,0x2108(%rsp)
  400ffb:	00 
  400ffc:	31 c0                	xor    %eax,%eax
  400ffe:	89 3d f4 34 20 00    	mov    %edi,0x2034f4(%rip)        # 6044f8 <check_level>
  401004:	8b 3d 3e 31 20 00    	mov    0x20313e(%rip),%edi        # 604148 <target_id>
  40100a:	e8 ce 1d 00 00       	callq  402ddd <gencookie>
  40100f:	89 05 ef 34 20 00    	mov    %eax,0x2034ef(%rip)        # 604504 <cookie>
  401015:	89 c7                	mov    %eax,%edi
  401017:	e8 c1 1d 00 00       	callq  402ddd <gencookie>
  40101c:	89 05 de 34 20 00    	mov    %eax,0x2034de(%rip)        # 604500 <authkey>
  401022:	8b 05 20 31 20 00    	mov    0x203120(%rip),%eax        # 604148 <target_id>
  401028:	8d 78 01             	lea    0x1(%rax),%edi
  40102b:	e8 20 fc ff ff       	callq  400c50 <srandom@plt>
  401030:	e8 3b fd ff ff       	callq  400d70 <random@plt>
  401035:	89 c7                	mov    %eax,%edi
  401037:	e8 a9 02 00 00       	callq  4012e5 <scramble>
  40103c:	89 c3                	mov    %eax,%ebx
  40103e:	85 ed                	test   %ebp,%ebp
  401040:	74 18                	je     40105a <initialize_target+0x7a>
  401042:	bf 00 00 00 00       	mov    $0x0,%edi
  401047:	e8 14 fd ff ff       	callq  400d60 <time@plt>
  40104c:	89 c7                	mov    %eax,%edi
  40104e:	e8 fd fb ff ff       	callq  400c50 <srandom@plt>
  401053:	e8 18 fd ff ff       	callq  400d70 <random@plt>
  401058:	eb 05                	jmp    40105f <initialize_target+0x7f>
  40105a:	b8 00 00 00 00       	mov    $0x0,%eax
  40105f:	01 c3                	add    %eax,%ebx
  401061:	0f b7 db             	movzwl %bx,%ebx
  401064:	8d 04 dd 00 01 00 00 	lea    0x100(,%rbx,8),%eax
  40106b:	89 c0                	mov    %eax,%eax
  40106d:	48 89 05 0c 34 20 00 	mov    %rax,0x20340c(%rip)        # 604480 <buf_offset>
  401074:	c6 05 ad 40 20 00 63 	movb   $0x63,0x2040ad(%rip)        # 605128 <target_prefix>
  40107b:	83 3d 06 34 20 00 00 	cmpl   $0x0,0x203406(%rip)        # 604488 <notify>
  401082:	74 65                	je     4010e9 <initialize_target+0x109>
  401084:	83 3d 7d 34 20 00 00 	cmpl   $0x0,0x20347d(%rip)        # 604508 <is_checker>
  40108b:	75 5c                	jne    4010e9 <initialize_target+0x109>
  40108d:	be 00 01 00 00       	mov    $0x100,%esi
  401092:	48 89 e7             	mov    %rsp,%rdi
  401095:	e8 56 fd ff ff       	callq  400df0 <gethostname@plt>
  40109a:	85 c0                	test   %eax,%eax
  40109c:	74 14                	je     4010b2 <initialize_target+0xd2>
  40109e:	bf 68 2f 40 00       	mov    $0x402f68,%edi
  4010a3:	e8 d8 fb ff ff       	callq  400c80 <puts@plt>
  4010a8:	bf 08 00 00 00       	mov    $0x8,%edi
  4010ad:	e8 4e fd ff ff       	callq  400e00 <exit@plt>
  4010b2:	48 8d bc 24 00 01 00 	lea    0x100(%rsp),%rdi
  4010b9:	00 
  4010ba:	e8 88 1a 00 00       	callq  402b47 <init_driver>
  4010bf:	85 c0                	test   %eax,%eax
  4010c1:	79 26                	jns    4010e9 <initialize_target+0x109>
  4010c3:	48 8d 94 24 00 01 00 	lea    0x100(%rsp),%rdx
  4010ca:	00 
  4010cb:	be a0 2f 40 00       	mov    $0x402fa0,%esi
  4010d0:	bf 01 00 00 00       	mov    $0x1,%edi
  4010d5:	b8 00 00 00 00       	mov    $0x0,%eax
  4010da:	e8 d1 fc ff ff       	callq  400db0 <__printf_chk@plt>
  4010df:	bf 08 00 00 00       	mov    $0x8,%edi
  4010e4:	e8 17 fd ff ff       	callq  400e00 <exit@plt>
  4010e9:	48 8b 84 24 08 21 00 	mov    0x2108(%rsp),%rax
  4010f0:	00 
  4010f1:	64 48 33 04 25 28 00 	xor    %fs:0x28,%rax
  4010f8:	00 00 
  4010fa:	74 05                	je     401101 <initialize_target+0x121>
  4010fc:	e8 9f fb ff ff       	callq  400ca0 <__stack_chk_fail@plt>
  401101:	48 81 c4 18 21 00 00 	add    $0x2118,%rsp
  401108:	5b                   	pop    %rbx
  401109:	5d                   	pop    %rbp
  40110a:	c3                   	retq   

000000000040110b <main>:
  40110b:	41 56                	push   %r14
  40110d:	41 55                	push   %r13
  40110f:	41 54                	push   %r12
  401111:	55                   	push   %rbp
  401112:	53                   	push   %rbx
  401113:	41 89 fc             	mov    %edi,%r12d
  401116:	48 89 f3             	mov    %rsi,%rbx
  401119:	be 82 1e 40 00       	mov    $0x401e82,%esi
  40111e:	bf 0b 00 00 00       	mov    $0xb,%edi
  401123:	e8 e8 fb ff ff       	callq  400d10 <signal@plt>
  401128:	be 34 1e 40 00       	mov    $0x401e34,%esi
  40112d:	bf 07 00 00 00       	mov    $0x7,%edi
  401132:	e8 d9 fb ff ff       	callq  400d10 <signal@plt>
  401137:	be d0 1e 40 00       	mov    $0x401ed0,%esi
  40113c:	bf 04 00 00 00       	mov    $0x4,%edi
  401141:	e8 ca fb ff ff       	callq  400d10 <signal@plt>
  401146:	83 3d bb 33 20 00 00 	cmpl   $0x0,0x2033bb(%rip)        # 604508 <is_checker>
  40114d:	74 20                	je     40116f <main+0x64>
  40114f:	be 1e 1f 40 00       	mov    $0x401f1e,%esi
  401154:	bf 0e 00 00 00       	mov    $0xe,%edi
  401159:	e8 b2 fb ff ff       	callq  400d10 <signal@plt>
  40115e:	bf 05 00 00 00       	mov    $0x5,%edi
  401163:	e8 68 fb ff ff       	callq  400cd0 <alarm@plt>
  401168:	bd 6a 30 40 00       	mov    $0x40306a,%ebp
  40116d:	eb 05                	jmp    401174 <main+0x69>
  40116f:	bd 65 30 40 00       	mov    $0x403065,%ebp
  401174:	48 8b 05 25 33 20 00 	mov    0x203325(%rip),%rax        # 6044a0 <stdin@@GLIBC_2.2.5>
  40117b:	48 89 05 6e 33 20 00 	mov    %rax,0x20336e(%rip)        # 6044f0 <infile>
  401182:	41 bd 00 00 00 00    	mov    $0x0,%r13d
  401188:	41 be 00 00 00 00    	mov    $0x0,%r14d
  40118e:	e9 c6 00 00 00       	jmpq   401259 <main+0x14e>
  401193:	83 e8 61             	sub    $0x61,%eax
  401196:	3c 10                	cmp    $0x10,%al
  401198:	0f 87 9c 00 00 00    	ja     40123a <main+0x12f>
  40119e:	0f b6 c0             	movzbl %al,%eax
  4011a1:	ff 24 c5 b0 30 40 00 	jmpq   *0x4030b0(,%rax,8)
  4011a8:	48 8b 3b             	mov    (%rbx),%rdi
  4011ab:	e8 a6 fd ff ff       	callq  400f56 <usage>
  4011b0:	be a5 33 40 00       	mov    $0x4033a5,%esi
  4011b5:	48 8b 3d ec 32 20 00 	mov    0x2032ec(%rip),%rdi        # 6044a8 <optarg@@GLIBC_2.2.5>
  4011bc:	e8 ff fb ff ff       	callq  400dc0 <fopen@plt>
  4011c1:	48 89 05 28 33 20 00 	mov    %rax,0x203328(%rip)        # 6044f0 <infile>
  4011c8:	48 85 c0             	test   %rax,%rax
  4011cb:	0f 85 88 00 00 00    	jne    401259 <main+0x14e>
  4011d1:	48 8b 0d d0 32 20 00 	mov    0x2032d0(%rip),%rcx        # 6044a8 <optarg@@GLIBC_2.2.5>
  4011d8:	ba 72 30 40 00       	mov    $0x403072,%edx
  4011dd:	be 01 00 00 00       	mov    $0x1,%esi
  4011e2:	48 8b 3d d7 32 20 00 	mov    0x2032d7(%rip),%rdi        # 6044c0 <stderr@@GLIBC_2.2.5>
  4011e9:	e8 32 fc ff ff       	callq  400e20 <__fprintf_chk@plt>
  4011ee:	b8 01 00 00 00       	mov    $0x1,%eax
  4011f3:	e9 e4 00 00 00       	jmpq   4012dc <main+0x1d1>
  4011f8:	ba 10 00 00 00       	mov    $0x10,%edx
  4011fd:	be 00 00 00 00       	mov    $0x0,%esi
  401202:	48 8b 3d 9f 32 20 00 	mov    0x20329f(%rip),%rdi        # 6044a8 <optarg@@GLIBC_2.2.5>
  401209:	e8 d2 fb ff ff       	callq  400de0 <strtoul@plt>
  40120e:	41 89 c6             	mov    %eax,%r14d
  401211:	eb 46                	jmp    401259 <main+0x14e>
  401213:	ba 0a 00 00 00       	mov    $0xa,%edx
  401218:	be 00 00 00 00       	mov    $0x0,%esi
  40121d:	48 8b 3d 84 32 20 00 	mov    0x203284(%rip),%rdi        # 6044a8 <optarg@@GLIBC_2.2.5>
  401224:	e8 17 fb ff ff       	callq  400d40 <strtol@plt>
  401229:	41 89 c5             	mov    %eax,%r13d
  40122c:	eb 2b                	jmp    401259 <main+0x14e>
  40122e:	c7 05 50 32 20 00 00 	movl   $0x0,0x203250(%rip)        # 604488 <notify>
  401235:	00 00 00 
  401238:	eb 1f                	jmp    401259 <main+0x14e>
  40123a:	0f be d2             	movsbl %dl,%edx
  40123d:	be 8f 30 40 00       	mov    $0x40308f,%esi
  401242:	bf 01 00 00 00       	mov    $0x1,%edi
  401247:	b8 00 00 00 00       	mov    $0x0,%eax
  40124c:	e8 5f fb ff ff       	callq  400db0 <__printf_chk@plt>
  401251:	48 8b 3b             	mov    (%rbx),%rdi
  401254:	e8 fd fc ff ff       	callq  400f56 <usage>
  401259:	48 89 ea             	mov    %rbp,%rdx
  40125c:	48 89 de             	mov    %rbx,%rsi
  40125f:	44 89 e7             	mov    %r12d,%edi
  401262:	e8 69 fb ff ff       	callq  400dd0 <getopt@plt>
  401267:	89 c2                	mov    %eax,%edx
  401269:	3c ff                	cmp    $0xff,%al
  40126b:	0f 85 22 ff ff ff    	jne    401193 <main+0x88>
  401271:	be 00 00 00 00       	mov    $0x0,%esi
  401276:	44 89 ef             	mov    %r13d,%edi
  401279:	e8 62 fd ff ff       	callq  400fe0 <initialize_target>
  40127e:	83 3d 83 32 20 00 00 	cmpl   $0x0,0x203283(%rip)        # 604508 <is_checker>
  401285:	74 2a                	je     4012b1 <main+0x1a6>
  401287:	44 3b 35 72 32 20 00 	cmp    0x203272(%rip),%r14d        # 604500 <authkey>
  40128e:	74 21                	je     4012b1 <main+0x1a6>
  401290:	44 89 f2             	mov    %r14d,%edx
  401293:	be c8 2f 40 00       	mov    $0x402fc8,%esi
  401298:	bf 01 00 00 00       	mov    $0x1,%edi
  40129d:	b8 00 00 00 00       	mov    $0x0,%eax
  4012a2:	e8 09 fb ff ff       	callq  400db0 <__printf_chk@plt>
  4012a7:	b8 00 00 00 00       	mov    $0x0,%eax
  4012ac:	e8 1f 08 00 00       	callq  401ad0 <check_fail>
  4012b1:	8b 15 4d 32 20 00    	mov    0x20324d(%rip),%edx        # 604504 <cookie>
  4012b7:	be a2 30 40 00       	mov    $0x4030a2,%esi
  4012bc:	bf 01 00 00 00       	mov    $0x1,%edi
  4012c1:	b8 00 00 00 00       	mov    $0x0,%eax
  4012c6:	e8 e5 fa ff ff       	callq  400db0 <__printf_chk@plt>
  4012cb:	48 8b 3d ae 31 20 00 	mov    0x2031ae(%rip),%rdi        # 604480 <buf_offset>
  4012d2:	e8 47 0d 00 00       	callq  40201e <stable_launch>
  4012d7:	b8 00 00 00 00       	mov    $0x0,%eax
  4012dc:	5b                   	pop    %rbx
  4012dd:	5d                   	pop    %rbp
  4012de:	41 5c                	pop    %r12
  4012e0:	41 5d                	pop    %r13
  4012e2:	41 5e                	pop    %r14
  4012e4:	c3                   	retq   

00000000004012e5 <scramble>:
  4012e5:	48 83 ec 38          	sub    $0x38,%rsp
  4012e9:	64 48 8b 04 25 28 00 	mov    %fs:0x28,%rax
  4012f0:	00 00 
  4012f2:	48 89 44 24 28       	mov    %rax,0x28(%rsp)
  4012f7:	31 c0                	xor    %eax,%eax
  4012f9:	eb 10                	jmp    40130b <scramble+0x26>
  4012fb:	69 d0 4a e1 00 00    	imul   $0xe14a,%eax,%edx
  401301:	01 fa                	add    %edi,%edx
  401303:	89 c1                	mov    %eax,%ecx
  401305:	89 14 8c             	mov    %edx,(%rsp,%rcx,4)
  401308:	83 c0 01             	add    $0x1,%eax
  40130b:	83 f8 09             	cmp    $0x9,%eax
  40130e:	76 eb                	jbe    4012fb <scramble+0x16>
  401310:	8b 44 24 0c          	mov    0xc(%rsp),%eax
  401314:	69 c0 e7 be 00 00    	imul   $0xbee7,%eax,%eax
  40131a:	89 44 24 0c          	mov    %eax,0xc(%rsp)
  40131e:	8b 44 24 1c          	mov    0x1c(%rsp),%eax
  401322:	69 c0 95 4f 00 00    	imul   $0x4f95,%eax,%eax
  401328:	89 44 24 1c          	mov    %eax,0x1c(%rsp)
  40132c:	8b 04 24             	mov    (%rsp),%eax
  40132f:	69 c0 57 36 00 00    	imul   $0x3657,%eax,%eax
  401335:	89 04 24             	mov    %eax,(%rsp)
  401338:	8b 44 24 14          	mov    0x14(%rsp),%eax
  40133c:	69 c0 f4 dc 00 00    	imul   $0xdcf4,%eax,%eax
  401342:	89 44 24 14          	mov    %eax,0x14(%rsp)
  401346:	8b 44 24 0c          	mov    0xc(%rsp),%eax
  40134a:	69 c0 c3 26 00 00    	imul   $0x26c3,%eax,%eax
  401350:	89 44 24 0c          	mov    %eax,0xc(%rsp)
  401354:	8b 44 24 10          	mov    0x10(%rsp),%eax
  401358:	69 c0 1d 56 00 00    	imul   $0x561d,%eax,%eax
  40135e:	89 44 24 10          	mov    %eax,0x10(%rsp)
  401362:	8b 44 24 20          	mov    0x20(%rsp),%eax
  401366:	69 c0 f8 db 00 00    	imul   $0xdbf8,%eax,%eax
  40136c:	89 44 24 20          	mov    %eax,0x20(%rsp)
  401370:	8b 44 24 20          	mov    0x20(%rsp),%eax
  401374:	69 c0 48 ea 00 00    	imul   $0xea48,%eax,%eax
  40137a:	89 44 24 20          	mov    %eax,0x20(%rsp)
  40137e:	8b 44 24 14          	mov    0x14(%rsp),%eax
  401382:	69 c0 ed db 00 00    	imul   $0xdbed,%eax,%eax
  401388:	89 44 24 14          	mov    %eax,0x14(%rsp)
  40138c:	8b 44 24 18          	mov    0x18(%rsp),%eax
  401390:	69 c0 a7 be 00 00    	imul   $0xbea7,%eax,%eax
  401396:	89 44 24 18          	mov    %eax,0x18(%rsp)
  40139a:	8b 44 24 14          	mov    0x14(%rsp),%eax
  40139e:	69 c0 b2 e9 00 00    	imul   $0xe9b2,%eax,%eax
  4013a4:	89 44 24 14          	mov    %eax,0x14(%rsp)
  4013a8:	8b 44 24 24          	mov    0x24(%rsp),%eax
  4013ac:	69 c0 a5 e9 00 00    	imul   $0xe9a5,%eax,%eax
  4013b2:	89 44 24 24          	mov    %eax,0x24(%rsp)
  4013b6:	8b 44 24 14          	mov    0x14(%rsp),%eax
  4013ba:	69 c0 4a fe 00 00    	imul   $0xfe4a,%eax,%eax
  4013c0:	89 44 24 14          	mov    %eax,0x14(%rsp)
  4013c4:	8b 44 24 10          	mov    0x10(%rsp),%eax
  4013c8:	69 c0 af 70 00 00    	imul   $0x70af,%eax,%eax
  4013ce:	89 44 24 10          	mov    %eax,0x10(%rsp)
  4013d2:	8b 44 24 0c          	mov    0xc(%rsp),%eax
  4013d6:	69 c0 cf 23 00 00    	imul   $0x23cf,%eax,%eax
  4013dc:	89 44 24 0c          	mov    %eax,0xc(%rsp)
  4013e0:	8b 44 24 08          	mov    0x8(%rsp),%eax
  4013e4:	69 c0 1a 7c 00 00    	imul   $0x7c1a,%eax,%eax
  4013ea:	89 44 24 08          	mov    %eax,0x8(%rsp)
  4013ee:	8b 44 24 1c          	mov    0x1c(%rsp),%eax
  4013f2:	69 c0 de 97 00 00    	imul   $0x97de,%eax,%eax
  4013f8:	89 44 24 1c          	mov    %eax,0x1c(%rsp)
  4013fc:	8b 44 24 04          	mov    0x4(%rsp),%eax
  401400:	69 c0 eb 2b 00 00    	imul   $0x2beb,%eax,%eax
  401406:	89 44 24 04          	mov    %eax,0x4(%rsp)
  40140a:	8b 04 24             	mov    (%rsp),%eax
  40140d:	69 c0 b9 0d 00 00    	imul   $0xdb9,%eax,%eax
  401413:	89 04 24             	mov    %eax,(%rsp)
  401416:	8b 44 24 14          	mov    0x14(%rsp),%eax
  40141a:	69 c0 5c 5d 00 00    	imul   $0x5d5c,%eax,%eax
  401420:	89 44 24 14          	mov    %eax,0x14(%rsp)
  401424:	8b 44 24 18          	mov    0x18(%rsp),%eax
  401428:	69 c0 df 9b 00 00    	imul   $0x9bdf,%eax,%eax
  40142e:	89 44 24 18          	mov    %eax,0x18(%rsp)
  401432:	8b 44 24 08          	mov    0x8(%rsp),%eax
  401436:	69 c0 5f c0 00 00    	imul   $0xc05f,%eax,%eax
  40143c:	89 44 24 08          	mov    %eax,0x8(%rsp)
  401440:	8b 44 24 10          	mov    0x10(%rsp),%eax
  401444:	69 c0 b4 18 00 00    	imul   $0x18b4,%eax,%eax
  40144a:	89 44 24 10          	mov    %eax,0x10(%rsp)
  40144e:	8b 04 24             	mov    (%rsp),%eax
  401451:	69 c0 fc 08 00 00    	imul   $0x8fc,%eax,%eax
  401457:	89 04 24             	mov    %eax,(%rsp)
  40145a:	8b 44 24 14          	mov    0x14(%rsp),%eax
  40145e:	69 c0 bd f5 00 00    	imul   $0xf5bd,%eax,%eax
  401464:	89 44 24 14          	mov    %eax,0x14(%rsp)
  401468:	8b 44 24 14          	mov    0x14(%rsp),%eax
  40146c:	69 c0 e8 e8 00 00    	imul   $0xe8e8,%eax,%eax
  401472:	89 44 24 14          	mov    %eax,0x14(%rsp)
  401476:	8b 44 24 04          	mov    0x4(%rsp),%eax
  40147a:	69 c0 f1 2a 00 00    	imul   $0x2af1,%eax,%eax
  401480:	89 44 24 04          	mov    %eax,0x4(%rsp)
  401484:	8b 44 24 04          	mov    0x4(%rsp),%eax
  401488:	69 c0 78 ee 00 00    	imul   $0xee78,%eax,%eax
  40148e:	89 44 24 04          	mov    %eax,0x4(%rsp)
  401492:	8b 44 24 04          	mov    0x4(%rsp),%eax
  401496:	69 c0 ca 8b 00 00    	imul   $0x8bca,%eax,%eax
  40149c:	89 44 24 04          	mov    %eax,0x4(%rsp)
  4014a0:	8b 44 24 1c          	mov    0x1c(%rsp),%eax
  4014a4:	69 c0 0b c4 00 00    	imul   $0xc40b,%eax,%eax
  4014aa:	89 44 24 1c          	mov    %eax,0x1c(%rsp)
  4014ae:	8b 44 24 24          	mov    0x24(%rsp),%eax
  4014b2:	69 c0 34 77 00 00    	imul   $0x7734,%eax,%eax
  4014b8:	89 44 24 24          	mov    %eax,0x24(%rsp)
  4014bc:	8b 44 24 10          	mov    0x10(%rsp),%eax
  4014c0:	69 c0 4f 92 00 00    	imul   $0x924f,%eax,%eax
  4014c6:	89 44 24 10          	mov    %eax,0x10(%rsp)
  4014ca:	8b 44 24 04          	mov    0x4(%rsp),%eax
  4014ce:	69 c0 d4 0b 00 00    	imul   $0xbd4,%eax,%eax
  4014d4:	89 44 24 04          	mov    %eax,0x4(%rsp)
  4014d8:	8b 44 24 20          	mov    0x20(%rsp),%eax
  4014dc:	69 c0 48 dd 00 00    	imul   $0xdd48,%eax,%eax
  4014e2:	89 44 24 20          	mov    %eax,0x20(%rsp)
  4014e6:	8b 44 24 08          	mov    0x8(%rsp),%eax
  4014ea:	69 c0 1b c7 00 00    	imul   $0xc71b,%eax,%eax
  4014f0:	89 44 24 08          	mov    %eax,0x8(%rsp)
  4014f4:	8b 44 24 20          	mov    0x20(%rsp),%eax
  4014f8:	69 c0 0b 4e 00 00    	imul   $0x4e0b,%eax,%eax
  4014fe:	89 44 24 20          	mov    %eax,0x20(%rsp)
  401502:	8b 44 24 10          	mov    0x10(%rsp),%eax
  401506:	69 c0 1e ee 00 00    	imul   $0xee1e,%eax,%eax
  40150c:	89 44 24 10          	mov    %eax,0x10(%rsp)
  401510:	8b 44 24 1c          	mov    0x1c(%rsp),%eax
  401514:	69 c0 d2 da 00 00    	imul   $0xdad2,%eax,%eax
  40151a:	89 44 24 1c          	mov    %eax,0x1c(%rsp)
  40151e:	8b 44 24 08          	mov    0x8(%rsp),%eax
  401522:	69 c0 12 b9 00 00    	imul   $0xb912,%eax,%eax
  401528:	89 44 24 08          	mov    %eax,0x8(%rsp)
  40152c:	8b 44 24 10          	mov    0x10(%rsp),%eax
  401530:	69 c0 75 fb 00 00    	imul   $0xfb75,%eax,%eax
  401536:	89 44 24 10          	mov    %eax,0x10(%rsp)
  40153a:	8b 44 24 0c          	mov    0xc(%rsp),%eax
  40153e:	69 c0 72 ab 00 00    	imul   $0xab72,%eax,%eax
  401544:	89 44 24 0c          	mov    %eax,0xc(%rsp)
  401548:	8b 44 24 04          	mov    0x4(%rsp),%eax
  40154c:	69 c0 3f 8e 00 00    	imul   $0x8e3f,%eax,%eax
  401552:	89 44 24 04          	mov    %eax,0x4(%rsp)
  401556:	8b 44 24 18          	mov    0x18(%rsp),%eax
  40155a:	69 c0 ea b6 00 00    	imul   $0xb6ea,%eax,%eax
  401560:	89 44 24 18          	mov    %eax,0x18(%rsp)
  401564:	8b 44 24 10          	mov    0x10(%rsp),%eax
  401568:	69 c0 9e ff 00 00    	imul   $0xff9e,%eax,%eax
  40156e:	89 44 24 10          	mov    %eax,0x10(%rsp)
  401572:	8b 04 24             	mov    (%rsp),%eax
  401575:	69 c0 df db 00 00    	imul   $0xdbdf,%eax,%eax
  40157b:	89 04 24             	mov    %eax,(%rsp)
  40157e:	8b 44 24 18          	mov    0x18(%rsp),%eax
  401582:	69 c0 4e f2 00 00    	imul   $0xf24e,%eax,%eax
  401588:	89 44 24 18          	mov    %eax,0x18(%rsp)
  40158c:	8b 44 24 0c          	mov    0xc(%rsp),%eax
  401590:	69 c0 cf 03 00 00    	imul   $0x3cf,%eax,%eax
  401596:	89 44 24 0c          	mov    %eax,0xc(%rsp)
  40159a:	8b 04 24             	mov    (%rsp),%eax
  40159d:	69 c0 26 62 00 00    	imul   $0x6226,%eax,%eax
  4015a3:	89 04 24             	mov    %eax,(%rsp)
  4015a6:	8b 44 24 18          	mov    0x18(%rsp),%eax
  4015aa:	69 c0 d8 42 00 00    	imul   $0x42d8,%eax,%eax
  4015b0:	89 44 24 18          	mov    %eax,0x18(%rsp)
  4015b4:	8b 44 24 24          	mov    0x24(%rsp),%eax
  4015b8:	69 c0 32 29 00 00    	imul   $0x2932,%eax,%eax
  4015be:	89 44 24 24          	mov    %eax,0x24(%rsp)
  4015c2:	8b 44 24 0c          	mov    0xc(%rsp),%eax
  4015c6:	69 c0 13 7a 00 00    	imul   $0x7a13,%eax,%eax
  4015cc:	89 44 24 0c          	mov    %eax,0xc(%rsp)
  4015d0:	8b 44 24 04          	mov    0x4(%rsp),%eax
  4015d4:	69 c0 ee 6c 00 00    	imul   $0x6cee,%eax,%eax
  4015da:	89 44 24 04          	mov    %eax,0x4(%rsp)
  4015de:	8b 04 24             	mov    (%rsp),%eax
  4015e1:	69 c0 a7 85 00 00    	imul   $0x85a7,%eax,%eax
  4015e7:	89 04 24             	mov    %eax,(%rsp)
  4015ea:	8b 04 24             	mov    (%rsp),%eax
  4015ed:	69 c0 04 6f 00 00    	imul   $0x6f04,%eax,%eax
  4015f3:	89 04 24             	mov    %eax,(%rsp)
  4015f6:	8b 44 24 1c          	mov    0x1c(%rsp),%eax
  4015fa:	69 c0 8f 2b 00 00    	imul   $0x2b8f,%eax,%eax
  401600:	89 44 24 1c          	mov    %eax,0x1c(%rsp)
  401604:	8b 44 24 0c          	mov    0xc(%rsp),%eax
  401608:	69 c0 8a ed 00 00    	imul   $0xed8a,%eax,%eax
  40160e:	89 44 24 0c          	mov    %eax,0xc(%rsp)
  401612:	8b 44 24 0c          	mov    0xc(%rsp),%eax
  401616:	69 c0 d6 4e 00 00    	imul   $0x4ed6,%eax,%eax
  40161c:	89 44 24 0c          	mov    %eax,0xc(%rsp)
  401620:	8b 44 24 20          	mov    0x20(%rsp),%eax
  401624:	69 c0 64 ad 00 00    	imul   $0xad64,%eax,%eax
  40162a:	89 44 24 20          	mov    %eax,0x20(%rsp)
  40162e:	8b 44 24 20          	mov    0x20(%rsp),%eax
  401632:	69 c0 81 f8 00 00    	imul   $0xf881,%eax,%eax
  401638:	89 44 24 20          	mov    %eax,0x20(%rsp)
  40163c:	8b 44 24 0c          	mov    0xc(%rsp),%eax
  401640:	69 c0 75 48 00 00    	imul   $0x4875,%eax,%eax
  401646:	89 44 24 0c          	mov    %eax,0xc(%rsp)
  40164a:	8b 44 24 1c          	mov    0x1c(%rsp),%eax
  40164e:	69 c0 ac 70 00 00    	imul   $0x70ac,%eax,%eax
  401654:	89 44 24 1c          	mov    %eax,0x1c(%rsp)
  401658:	8b 04 24             	mov    (%rsp),%eax
  40165b:	69 c0 75 27 00 00    	imul   $0x2775,%eax,%eax
  401661:	89 04 24             	mov    %eax,(%rsp)
  401664:	8b 44 24 24          	mov    0x24(%rsp),%eax
  401668:	69 c0 60 bf 00 00    	imul   $0xbf60,%eax,%eax
  40166e:	89 44 24 24          	mov    %eax,0x24(%rsp)
  401672:	8b 44 24 24          	mov    0x24(%rsp),%eax
  401676:	69 c0 20 84 00 00    	imul   $0x8420,%eax,%eax
  40167c:	89 44 24 24          	mov    %eax,0x24(%rsp)
  401680:	8b 04 24             	mov    (%rsp),%eax
  401683:	69 c0 0a c9 00 00    	imul   $0xc90a,%eax,%eax
  401689:	89 04 24             	mov    %eax,(%rsp)
  40168c:	8b 44 24 24          	mov    0x24(%rsp),%eax
  401690:	69 c0 2c 0c 00 00    	imul   $0xc2c,%eax,%eax
  401696:	89 44 24 24          	mov    %eax,0x24(%rsp)
  40169a:	8b 44 24 20          	mov    0x20(%rsp),%eax
  40169e:	69 c0 8f 24 00 00    	imul   $0x248f,%eax,%eax
  4016a4:	89 44 24 20          	mov    %eax,0x20(%rsp)
  4016a8:	8b 44 24 08          	mov    0x8(%rsp),%eax
  4016ac:	69 c0 4e ab 00 00    	imul   $0xab4e,%eax,%eax
  4016b2:	89 44 24 08          	mov    %eax,0x8(%rsp)
  4016b6:	8b 44 24 0c          	mov    0xc(%rsp),%eax
  4016ba:	69 c0 db c0 00 00    	imul   $0xc0db,%eax,%eax
  4016c0:	89 44 24 0c          	mov    %eax,0xc(%rsp)
  4016c4:	8b 44 24 18          	mov    0x18(%rsp),%eax
  4016c8:	69 c0 f0 e8 00 00    	imul   $0xe8f0,%eax,%eax
  4016ce:	89 44 24 18          	mov    %eax,0x18(%rsp)
  4016d2:	8b 44 24 18          	mov    0x18(%rsp),%eax
  4016d6:	69 c0 cc 84 00 00    	imul   $0x84cc,%eax,%eax
  4016dc:	89 44 24 18          	mov    %eax,0x18(%rsp)
  4016e0:	8b 44 24 14          	mov    0x14(%rsp),%eax
  4016e4:	69 c0 6b c3 00 00    	imul   $0xc36b,%eax,%eax
  4016ea:	89 44 24 14          	mov    %eax,0x14(%rsp)
  4016ee:	8b 44 24 1c          	mov    0x1c(%rsp),%eax
  4016f2:	69 c0 44 52 00 00    	imul   $0x5244,%eax,%eax
  4016f8:	89 44 24 1c          	mov    %eax,0x1c(%rsp)
  4016fc:	8b 44 24 14          	mov    0x14(%rsp),%eax
  401700:	69 c0 63 d9 00 00    	imul   $0xd963,%eax,%eax
  401706:	89 44 24 14          	mov    %eax,0x14(%rsp)
  40170a:	8b 44 24 20          	mov    0x20(%rsp),%eax
  40170e:	69 c0 d1 1d 00 00    	imul   $0x1dd1,%eax,%eax
  401714:	89 44 24 20          	mov    %eax,0x20(%rsp)
  401718:	8b 44 24 18          	mov    0x18(%rsp),%eax
  40171c:	69 c0 26 1f 00 00    	imul   $0x1f26,%eax,%eax
  401722:	89 44 24 18          	mov    %eax,0x18(%rsp)
  401726:	8b 44 24 1c          	mov    0x1c(%rsp),%eax
  40172a:	69 c0 9b 5c 00 00    	imul   $0x5c9b,%eax,%eax
  401730:	89 44 24 1c          	mov    %eax,0x1c(%rsp)
  401734:	8b 44 24 20          	mov    0x20(%rsp),%eax
  401738:	69 c0 fa 02 00 00    	imul   $0x2fa,%eax,%eax
  40173e:	89 44 24 20          	mov    %eax,0x20(%rsp)
  401742:	8b 44 24 20          	mov    0x20(%rsp),%eax
  401746:	69 c0 37 d0 00 00    	imul   $0xd037,%eax,%eax
  40174c:	89 44 24 20          	mov    %eax,0x20(%rsp)
  401750:	8b 44 24 1c          	mov    0x1c(%rsp),%eax
  401754:	69 c0 35 1e 00 00    	imul   $0x1e35,%eax,%eax
  40175a:	89 44 24 1c          	mov    %eax,0x1c(%rsp)
  40175e:	8b 44 24 1c          	mov    0x1c(%rsp),%eax
  401762:	69 c0 6c 34 00 00    	imul   $0x346c,%eax,%eax
  401768:	89 44 24 1c          	mov    %eax,0x1c(%rsp)
  40176c:	8b 44 24 0c          	mov    0xc(%rsp),%eax
  401770:	69 c0 5e dc 00 00    	imul   $0xdc5e,%eax,%eax
  401776:	89 44 24 0c          	mov    %eax,0xc(%rsp)
  40177a:	8b 44 24 08          	mov    0x8(%rsp),%eax
  40177e:	69 c0 7c a3 00 00    	imul   $0xa37c,%eax,%eax
  401784:	89 44 24 08          	mov    %eax,0x8(%rsp)
  401788:	8b 44 24 24          	mov    0x24(%rsp),%eax
  40178c:	69 c0 31 03 00 00    	imul   $0x331,%eax,%eax
  401792:	89 44 24 24          	mov    %eax,0x24(%rsp)
  401796:	8b 04 24             	mov    (%rsp),%eax
  401799:	69 c0 ff a1 00 00    	imul   $0xa1ff,%eax,%eax
  40179f:	89 04 24             	mov    %eax,(%rsp)
  4017a2:	8b 44 24 20          	mov    0x20(%rsp),%eax
  4017a6:	69 c0 c1 50 00 00    	imul   $0x50c1,%eax,%eax
  4017ac:	89 44 24 20          	mov    %eax,0x20(%rsp)
  4017b0:	8b 04 24             	mov    (%rsp),%eax
  4017b3:	69 c0 9c c2 00 00    	imul   $0xc29c,%eax,%eax
  4017b9:	89 04 24             	mov    %eax,(%rsp)
  4017bc:	8b 04 24             	mov    (%rsp),%eax
  4017bf:	69 c0 6f fa 00 00    	imul   $0xfa6f,%eax,%eax
  4017c5:	89 04 24             	mov    %eax,(%rsp)
  4017c8:	8b 44 24 20          	mov    0x20(%rsp),%eax
  4017cc:	69 c0 fb 84 00 00    	imul   $0x84fb,%eax,%eax
  4017d2:	89 44 24 20          	mov    %eax,0x20(%rsp)
  4017d6:	8b 44 24 08          	mov    0x8(%rsp),%eax
  4017da:	69 c0 a6 5f 00 00    	imul   $0x5fa6,%eax,%eax
  4017e0:	89 44 24 08          	mov    %eax,0x8(%rsp)
  4017e4:	8b 44 24 10          	mov    0x10(%rsp),%eax
  4017e8:	69 c0 ab f5 00 00    	imul   $0xf5ab,%eax,%eax
  4017ee:	89 44 24 10          	mov    %eax,0x10(%rsp)
  4017f2:	8b 44 24 08          	mov    0x8(%rsp),%eax
  4017f6:	69 c0 4a 31 00 00    	imul   $0x314a,%eax,%eax
  4017fc:	89 44 24 08          	mov    %eax,0x8(%rsp)
  401800:	8b 44 24 18          	mov    0x18(%rsp),%eax
  401804:	69 c0 68 c5 00 00    	imul   $0xc568,%eax,%eax
  40180a:	89 44 24 18          	mov    %eax,0x18(%rsp)
  40180e:	8b 44 24 0c          	mov    0xc(%rsp),%eax
  401812:	69 c0 42 6e 00 00    	imul   $0x6e42,%eax,%eax
  401818:	89 44 24 0c          	mov    %eax,0xc(%rsp)
  40181c:	8b 44 24 24          	mov    0x24(%rsp),%eax
  401820:	69 c0 5e bb 00 00    	imul   $0xbb5e,%eax,%eax
  401826:	89 44 24 24          	mov    %eax,0x24(%rsp)
  40182a:	8b 44 24 18          	mov    0x18(%rsp),%eax
  40182e:	69 c0 e0 2e 00 00    	imul   $0x2ee0,%eax,%eax
  401834:	89 44 24 18          	mov    %eax,0x18(%rsp)
  401838:	8b 44 24 08          	mov    0x8(%rsp),%eax
  40183c:	69 c0 d9 b6 00 00    	imul   $0xb6d9,%eax,%eax
  401842:	89 44 24 08          	mov    %eax,0x8(%rsp)
  401846:	ba 00 00 00 00       	mov    $0x0,%edx
  40184b:	b8 00 00 00 00       	mov    $0x0,%eax
  401850:	eb 0a                	jmp    40185c <scramble+0x577>
  401852:	89 d1                	mov    %edx,%ecx
  401854:	8b 0c 8c             	mov    (%rsp,%rcx,4),%ecx
  401857:	01 c8                	add    %ecx,%eax
  401859:	83 c2 01             	add    $0x1,%edx
  40185c:	83 fa 09             	cmp    $0x9,%edx
  40185f:	76 f1                	jbe    401852 <scramble+0x56d>
  401861:	48 8b 74 24 28       	mov    0x28(%rsp),%rsi
  401866:	64 48 33 34 25 28 00 	xor    %fs:0x28,%rsi
  40186d:	00 00 
  40186f:	74 05                	je     401876 <scramble+0x591>
  401871:	e8 2a f4 ff ff       	callq  400ca0 <__stack_chk_fail@plt>
  401876:	48 83 c4 38          	add    $0x38,%rsp
  40187a:	c3                   	retq   

000000000040187b <getbuf>:
  40187b:	48 83 ec 28          	sub    $0x28,%rsp
  40187f:	48 89 e7             	mov    %rsp,%rdi
  401882:	e8 7e 02 00 00       	callq  401b05 <Gets>
  401887:	b8 01 00 00 00       	mov    $0x1,%eax
  40188c:	48 83 c4 28          	add    $0x28,%rsp
  401890:	c3                   	retq   

0000000000401891 <touch1>:
  401891:	48 83 ec 08          	sub    $0x8,%rsp
  401895:	c7 05 5d 2c 20 00 01 	movl   $0x1,0x202c5d(%rip)        # 6044fc <vlevel>
  40189c:	00 00 00 
  40189f:	bf f7 31 40 00       	mov    $0x4031f7,%edi
  4018a4:	e8 d7 f3 ff ff       	callq  400c80 <puts@plt>
  4018a9:	bf 01 00 00 00       	mov    $0x1,%edi
  4018ae:	e8 97 04 00 00       	callq  401d4a <validate>
  4018b3:	bf 00 00 00 00       	mov    $0x0,%edi
  4018b8:	e8 43 f5 ff ff       	callq  400e00 <exit@plt>

00000000004018bd <touch2>:
  4018bd:	48 83 ec 08          	sub    $0x8,%rsp
  4018c1:	89 fa                	mov    %edi,%edx
  4018c3:	c7 05 2f 2c 20 00 02 	movl   $0x2,0x202c2f(%rip)        # 6044fc <vlevel>
  4018ca:	00 00 00 
  4018cd:	39 3d 31 2c 20 00    	cmp    %edi,0x202c31(%rip)        # 604504 <cookie>
  4018d3:	75 20                	jne    4018f5 <touch2+0x38>
  4018d5:	be 20 32 40 00       	mov    $0x403220,%esi
  4018da:	bf 01 00 00 00       	mov    $0x1,%edi
  4018df:	b8 00 00 00 00       	mov    $0x0,%eax
  4018e4:	e8 c7 f4 ff ff       	callq  400db0 <__printf_chk@plt>
  4018e9:	bf 02 00 00 00       	mov    $0x2,%edi
  4018ee:	e8 57 04 00 00       	callq  401d4a <validate>
  4018f3:	eb 1e                	jmp    401913 <touch2+0x56>
  4018f5:	be 48 32 40 00       	mov    $0x403248,%esi
  4018fa:	bf 01 00 00 00       	mov    $0x1,%edi
  4018ff:	b8 00 00 00 00       	mov    $0x0,%eax
  401904:	e8 a7 f4 ff ff       	callq  400db0 <__printf_chk@plt>
  401909:	bf 02 00 00 00       	mov    $0x2,%edi
  40190e:	e8 f9 04 00 00       	callq  401e0c <fail>
  401913:	bf 00 00 00 00       	mov    $0x0,%edi
  401918:	e8 e3 f4 ff ff       	callq  400e00 <exit@plt>

000000000040191d <hexmatch>:
  40191d:	41 54                	push   %r12
  40191f:	55                   	push   %rbp
  401920:	53                   	push   %rbx
  401921:	48 83 c4 80          	add    $0xffffffffffffff80,%rsp
  401925:	89 fd                	mov    %edi,%ebp
  401927:	48 89 f3             	mov    %rsi,%rbx
  40192a:	64 48 8b 04 25 28 00 	mov    %fs:0x28,%rax
  401931:	00 00 
  401933:	48 89 44 24 78       	mov    %rax,0x78(%rsp)
  401938:	31 c0                	xor    %eax,%eax
  40193a:	e8 31 f4 ff ff       	callq  400d70 <random@plt>
  40193f:	48 89 c1             	mov    %rax,%rcx
  401942:	48 ba 0b d7 a3 70 3d 	movabs $0xa3d70a3d70a3d70b,%rdx
  401949:	0a d7 a3 
  40194c:	48 f7 ea             	imul   %rdx
  40194f:	48 01 ca             	add    %rcx,%rdx
  401952:	48 c1 fa 06          	sar    $0x6,%rdx
  401956:	48 89 c8             	mov    %rcx,%rax
  401959:	48 c1 f8 3f          	sar    $0x3f,%rax
  40195d:	48 29 c2             	sub    %rax,%rdx
  401960:	48 8d 04 92          	lea    (%rdx,%rdx,4),%rax
  401964:	48 8d 14 80          	lea    (%rax,%rax,4),%rdx
  401968:	48 8d 04 95 00 00 00 	lea    0x0(,%rdx,4),%rax
  40196f:	00 
  401970:	48 29 c1             	sub    %rax,%rcx
  401973:	4c 8d 24 0c          	lea    (%rsp,%rcx,1),%r12
  401977:	41 89 e8             	mov    %ebp,%r8d
  40197a:	b9 14 32 40 00       	mov    $0x403214,%ecx
  40197f:	48 c7 c2 ff ff ff ff 	mov    $0xffffffffffffffff,%rdx
  401986:	be 01 00 00 00       	mov    $0x1,%esi
  40198b:	4c 89 e7             	mov    %r12,%rdi
  40198e:	b8 00 00 00 00       	mov    $0x0,%eax
  401993:	e8 98 f4 ff ff       	callq  400e30 <__sprintf_chk@plt>
  401998:	ba 09 00 00 00       	mov    $0x9,%edx
  40199d:	4c 89 e6             	mov    %r12,%rsi
  4019a0:	48 89 df             	mov    %rbx,%rdi
  4019a3:	e8 b8 f2 ff ff       	callq  400c60 <strncmp@plt>
  4019a8:	85 c0                	test   %eax,%eax
  4019aa:	0f 94 c0             	sete   %al
  4019ad:	48 8b 5c 24 78       	mov    0x78(%rsp),%rbx
  4019b2:	64 48 33 1c 25 28 00 	xor    %fs:0x28,%rbx
  4019b9:	00 00 
  4019bb:	74 05                	je     4019c2 <hexmatch+0xa5>
  4019bd:	e8 de f2 ff ff       	callq  400ca0 <__stack_chk_fail@plt>
  4019c2:	0f b6 c0             	movzbl %al,%eax
  4019c5:	48 83 ec 80          	sub    $0xffffffffffffff80,%rsp
  4019c9:	5b                   	pop    %rbx
  4019ca:	5d                   	pop    %rbp
  4019cb:	41 5c                	pop    %r12
  4019cd:	c3                   	retq   

00000000004019ce <touch3>:
  4019ce:	53                   	push   %rbx
  4019cf:	48 89 fb             	mov    %rdi,%rbx
  4019d2:	c7 05 20 2b 20 00 03 	movl   $0x3,0x202b20(%rip)        # 6044fc <vlevel>
  4019d9:	00 00 00 
  4019dc:	48 89 fe             	mov    %rdi,%rsi
  4019df:	8b 3d 1f 2b 20 00    	mov    0x202b1f(%rip),%edi        # 604504 <cookie>
  4019e5:	e8 33 ff ff ff       	callq  40191d <hexmatch>
  4019ea:	85 c0                	test   %eax,%eax
  4019ec:	74 23                	je     401a11 <touch3+0x43>
  4019ee:	48 89 da             	mov    %rbx,%rdx
  4019f1:	be 70 32 40 00       	mov    $0x403270,%esi
  4019f6:	bf 01 00 00 00       	mov    $0x1,%edi
  4019fb:	b8 00 00 00 00       	mov    $0x0,%eax
  401a00:	e8 ab f3 ff ff       	callq  400db0 <__printf_chk@plt>
  401a05:	bf 03 00 00 00       	mov    $0x3,%edi
  401a0a:	e8 3b 03 00 00       	callq  401d4a <validate>
  401a0f:	eb 21                	jmp    401a32 <touch3+0x64>
  401a11:	48 89 da             	mov    %rbx,%rdx
  401a14:	be 98 32 40 00       	mov    $0x403298,%esi
  401a19:	bf 01 00 00 00       	mov    $0x1,%edi
  401a1e:	b8 00 00 00 00       	mov    $0x0,%eax
  401a23:	e8 88 f3 ff ff       	callq  400db0 <__printf_chk@plt>
  401a28:	bf 03 00 00 00       	mov    $0x3,%edi
  401a2d:	e8 da 03 00 00       	callq  401e0c <fail>
  401a32:	bf 00 00 00 00       	mov    $0x0,%edi
  401a37:	e8 c4 f3 ff ff       	callq  400e00 <exit@plt>

0000000000401a3c <test>:
  401a3c:	48 83 ec 08          	sub    $0x8,%rsp
  401a40:	b8 00 00 00 00       	mov    $0x0,%eax
  401a45:	e8 31 fe ff ff       	callq  40187b <getbuf>
  401a4a:	89 c2                	mov    %eax,%edx
  401a4c:	be c0 32 40 00       	mov    $0x4032c0,%esi
  401a51:	bf 01 00 00 00       	mov    $0x1,%edi
  401a56:	b8 00 00 00 00       	mov    $0x0,%eax
  401a5b:	e8 50 f3 ff ff       	callq  400db0 <__printf_chk@plt>
  401a60:	48 83 c4 08          	add    $0x8,%rsp
  401a64:	c3                   	retq   

0000000000401a65 <save_char>:
  401a65:	8b 05 b9 36 20 00    	mov    0x2036b9(%rip),%eax        # 605124 <gets_cnt>
  401a6b:	3d ff 03 00 00       	cmp    $0x3ff,%eax
  401a70:	7f 49                	jg     401abb <save_char+0x56>
  401a72:	8d 14 40             	lea    (%rax,%rax,2),%edx
  401a75:	89 f9                	mov    %edi,%ecx
  401a77:	c0 e9 04             	shr    $0x4,%cl
  401a7a:	83 e1 0f             	and    $0xf,%ecx
  401a7d:	0f b6 b1 e0 35 40 00 	movzbl 0x4035e0(%rcx),%esi
  401a84:	48 63 ca             	movslq %edx,%rcx
  401a87:	40 88 b1 20 45 60 00 	mov    %sil,0x604520(%rcx)
  401a8e:	8d 4a 01             	lea    0x1(%rdx),%ecx
  401a91:	83 e7 0f             	and    $0xf,%edi
  401a94:	0f b6 b7 e0 35 40 00 	movzbl 0x4035e0(%rdi),%esi
  401a9b:	48 63 c9             	movslq %ecx,%rcx
  401a9e:	40 88 b1 20 45 60 00 	mov    %sil,0x604520(%rcx)
  401aa5:	83 c2 02             	add    $0x2,%edx
  401aa8:	48 63 d2             	movslq %edx,%rdx
  401aab:	c6 82 20 45 60 00 20 	movb   $0x20,0x604520(%rdx)
  401ab2:	83 c0 01             	add    $0x1,%eax
  401ab5:	89 05 69 36 20 00    	mov    %eax,0x203669(%rip)        # 605124 <gets_cnt>
  401abb:	f3 c3                	repz retq 

0000000000401abd <save_term>:
  401abd:	8b 05 61 36 20 00    	mov    0x203661(%rip),%eax        # 605124 <gets_cnt>
  401ac3:	8d 04 40             	lea    (%rax,%rax,2),%eax
  401ac6:	48 98                	cltq   
  401ac8:	c6 80 20 45 60 00 00 	movb   $0x0,0x604520(%rax)
  401acf:	c3                   	retq   

0000000000401ad0 <check_fail>:
  401ad0:	48 83 ec 08          	sub    $0x8,%rsp
  401ad4:	0f be 15 4d 36 20 00 	movsbl 0x20364d(%rip),%edx        # 605128 <target_prefix>
  401adb:	41 b8 20 45 60 00    	mov    $0x604520,%r8d
  401ae1:	8b 0d 11 2a 20 00    	mov    0x202a11(%rip),%ecx        # 6044f8 <check_level>
  401ae7:	be e3 32 40 00       	mov    $0x4032e3,%esi
  401aec:	bf 01 00 00 00       	mov    $0x1,%edi
  401af1:	b8 00 00 00 00       	mov    $0x0,%eax
  401af6:	e8 b5 f2 ff ff       	callq  400db0 <__printf_chk@plt>
  401afb:	bf 01 00 00 00       	mov    $0x1,%edi
  401b00:	e8 fb f2 ff ff       	callq  400e00 <exit@plt>

0000000000401b05 <Gets>:
  401b05:	41 54                	push   %r12
  401b07:	55                   	push   %rbp
  401b08:	53                   	push   %rbx
  401b09:	49 89 fc             	mov    %rdi,%r12
  401b0c:	c7 05 0e 36 20 00 00 	movl   $0x0,0x20360e(%rip)        # 605124 <gets_cnt>
  401b13:	00 00 00 
  401b16:	48 89 fb             	mov    %rdi,%rbx
  401b19:	eb 11                	jmp    401b2c <Gets+0x27>
  401b1b:	48 8d 6b 01          	lea    0x1(%rbx),%rbp
  401b1f:	88 03                	mov    %al,(%rbx)
  401b21:	0f b6 f8             	movzbl %al,%edi
  401b24:	e8 3c ff ff ff       	callq  401a65 <save_char>
  401b29:	48 89 eb             	mov    %rbp,%rbx
  401b2c:	48 8b 3d bd 29 20 00 	mov    0x2029bd(%rip),%rdi        # 6044f0 <infile>
  401b33:	e8 48 f2 ff ff       	callq  400d80 <_IO_getc@plt>
  401b38:	83 f8 ff             	cmp    $0xffffffff,%eax
  401b3b:	74 05                	je     401b42 <Gets+0x3d>
  401b3d:	83 f8 0a             	cmp    $0xa,%eax
  401b40:	75 d9                	jne    401b1b <Gets+0x16>
  401b42:	c6 03 00             	movb   $0x0,(%rbx)
  401b45:	b8 00 00 00 00       	mov    $0x0,%eax
  401b4a:	e8 6e ff ff ff       	callq  401abd <save_term>
  401b4f:	4c 89 e0             	mov    %r12,%rax
  401b52:	5b                   	pop    %rbx
  401b53:	5d                   	pop    %rbp
  401b54:	41 5c                	pop    %r12
  401b56:	c3                   	retq   

0000000000401b57 <notify_server>:
  401b57:	53                   	push   %rbx
  401b58:	48 81 ec 10 40 00 00 	sub    $0x4010,%rsp
  401b5f:	64 48 8b 04 25 28 00 	mov    %fs:0x28,%rax
  401b66:	00 00 
  401b68:	48 89 84 24 08 40 00 	mov    %rax,0x4008(%rsp)
  401b6f:	00 
  401b70:	31 c0                	xor    %eax,%eax
  401b72:	83 3d 8f 29 20 00 00 	cmpl   $0x0,0x20298f(%rip)        # 604508 <is_checker>
  401b79:	0f 85 aa 01 00 00    	jne    401d29 <notify_server+0x1d2>
  401b7f:	89 fb                	mov    %edi,%ebx
  401b81:	8b 05 9d 35 20 00    	mov    0x20359d(%rip),%eax        # 605124 <gets_cnt>
  401b87:	83 c0 64             	add    $0x64,%eax
  401b8a:	3d 00 20 00 00       	cmp    $0x2000,%eax
  401b8f:	7e 1e                	jle    401baf <notify_server+0x58>
  401b91:	be 18 34 40 00       	mov    $0x403418,%esi
  401b96:	bf 01 00 00 00       	mov    $0x1,%edi
  401b9b:	b8 00 00 00 00       	mov    $0x0,%eax
  401ba0:	e8 0b f2 ff ff       	callq  400db0 <__printf_chk@plt>
  401ba5:	bf 01 00 00 00       	mov    $0x1,%edi
  401baa:	e8 51 f2 ff ff       	callq  400e00 <exit@plt>
  401baf:	0f be 05 72 35 20 00 	movsbl 0x203572(%rip),%eax        # 605128 <target_prefix>
  401bb6:	83 3d cb 28 20 00 00 	cmpl   $0x0,0x2028cb(%rip)        # 604488 <notify>
  401bbd:	74 08                	je     401bc7 <notify_server+0x70>
  401bbf:	8b 15 3b 29 20 00    	mov    0x20293b(%rip),%edx        # 604500 <authkey>
  401bc5:	eb 05                	jmp    401bcc <notify_server+0x75>
  401bc7:	ba ff ff ff ff       	mov    $0xffffffff,%edx
  401bcc:	85 db                	test   %ebx,%ebx
  401bce:	74 08                	je     401bd8 <notify_server+0x81>
  401bd0:	41 b9 f9 32 40 00    	mov    $0x4032f9,%r9d
  401bd6:	eb 06                	jmp    401bde <notify_server+0x87>
  401bd8:	41 b9 fe 32 40 00    	mov    $0x4032fe,%r9d
  401bde:	68 20 45 60 00       	pushq  $0x604520
  401be3:	56                   	push   %rsi
  401be4:	50                   	push   %rax
  401be5:	52                   	push   %rdx
  401be6:	44 8b 05 5b 25 20 00 	mov    0x20255b(%rip),%r8d        # 604148 <target_id>
  401bed:	b9 03 33 40 00       	mov    $0x403303,%ecx
  401bf2:	ba 00 20 00 00       	mov    $0x2000,%edx
  401bf7:	be 01 00 00 00       	mov    $0x1,%esi
  401bfc:	48 8d 7c 24 20       	lea    0x20(%rsp),%rdi
  401c01:	b8 00 00 00 00       	mov    $0x0,%eax
  401c06:	e8 25 f2 ff ff       	callq  400e30 <__sprintf_chk@plt>
  401c0b:	48 83 c4 20          	add    $0x20,%rsp
  401c0f:	83 3d 72 28 20 00 00 	cmpl   $0x0,0x202872(%rip)        # 604488 <notify>
  401c16:	0f 84 81 00 00 00    	je     401c9d <notify_server+0x146>
  401c1c:	85 db                	test   %ebx,%ebx
  401c1e:	74 6e                	je     401c8e <notify_server+0x137>
  401c20:	4c 8d 8c 24 00 20 00 	lea    0x2000(%rsp),%r9
  401c27:	00 
  401c28:	41 b8 00 00 00 00    	mov    $0x0,%r8d
  401c2e:	48 89 e1             	mov    %rsp,%rcx
  401c31:	48 8b 15 18 25 20 00 	mov    0x202518(%rip),%rdx        # 604150 <lab>
  401c38:	48 8b 35 19 25 20 00 	mov    0x202519(%rip),%rsi        # 604158 <course>
  401c3f:	48 8b 3d fa 24 20 00 	mov    0x2024fa(%rip),%rdi        # 604140 <user_id>
  401c46:	e8 ef 10 00 00       	callq  402d3a <driver_post>
  401c4b:	85 c0                	test   %eax,%eax
  401c4d:	79 26                	jns    401c75 <notify_server+0x11e>
  401c4f:	48 8d 94 24 00 20 00 	lea    0x2000(%rsp),%rdx
  401c56:	00 
  401c57:	be 1f 33 40 00       	mov    $0x40331f,%esi
  401c5c:	bf 01 00 00 00       	mov    $0x1,%edi
  401c61:	b8 00 00 00 00       	mov    $0x0,%eax
  401c66:	e8 45 f1 ff ff       	callq  400db0 <__printf_chk@plt>
  401c6b:	bf 01 00 00 00       	mov    $0x1,%edi
  401c70:	e8 8b f1 ff ff       	callq  400e00 <exit@plt>
  401c75:	bf 48 34 40 00       	mov    $0x403448,%edi
  401c7a:	e8 01 f0 ff ff       	callq  400c80 <puts@plt>
  401c7f:	bf 2b 33 40 00       	mov    $0x40332b,%edi
  401c84:	e8 f7 ef ff ff       	callq  400c80 <puts@plt>
  401c89:	e9 9b 00 00 00       	jmpq   401d29 <notify_server+0x1d2>
  401c8e:	bf 35 33 40 00       	mov    $0x403335,%edi
  401c93:	e8 e8 ef ff ff       	callq  400c80 <puts@plt>
  401c98:	e9 8c 00 00 00       	jmpq   401d29 <notify_server+0x1d2>
  401c9d:	85 db                	test   %ebx,%ebx
  401c9f:	74 07                	je     401ca8 <notify_server+0x151>
  401ca1:	ba f9 32 40 00       	mov    $0x4032f9,%edx
  401ca6:	eb 05                	jmp    401cad <notify_server+0x156>
  401ca8:	ba fe 32 40 00       	mov    $0x4032fe,%edx
  401cad:	be 80 34 40 00       	mov    $0x403480,%esi
  401cb2:	bf 01 00 00 00       	mov    $0x1,%edi
  401cb7:	b8 00 00 00 00       	mov    $0x0,%eax
  401cbc:	e8 ef f0 ff ff       	callq  400db0 <__printf_chk@plt>
  401cc1:	48 8b 15 78 24 20 00 	mov    0x202478(%rip),%rdx        # 604140 <user_id>
  401cc8:	be 3c 33 40 00       	mov    $0x40333c,%esi
  401ccd:	bf 01 00 00 00       	mov    $0x1,%edi
  401cd2:	b8 00 00 00 00       	mov    $0x0,%eax
  401cd7:	e8 d4 f0 ff ff       	callq  400db0 <__printf_chk@plt>
  401cdc:	48 8b 15 75 24 20 00 	mov    0x202475(%rip),%rdx        # 604158 <course>
  401ce3:	be 49 33 40 00       	mov    $0x403349,%esi
  401ce8:	bf 01 00 00 00       	mov    $0x1,%edi
  401ced:	b8 00 00 00 00       	mov    $0x0,%eax
  401cf2:	e8 b9 f0 ff ff       	callq  400db0 <__printf_chk@plt>
  401cf7:	48 8b 15 52 24 20 00 	mov    0x202452(%rip),%rdx        # 604150 <lab>
  401cfe:	be 55 33 40 00       	mov    $0x403355,%esi
  401d03:	bf 01 00 00 00       	mov    $0x1,%edi
  401d08:	b8 00 00 00 00       	mov    $0x0,%eax
  401d0d:	e8 9e f0 ff ff       	callq  400db0 <__printf_chk@plt>
  401d12:	48 89 e2             	mov    %rsp,%rdx
  401d15:	be 5e 33 40 00       	mov    $0x40335e,%esi
  401d1a:	bf 01 00 00 00       	mov    $0x1,%edi
  401d1f:	b8 00 00 00 00       	mov    $0x0,%eax
  401d24:	e8 87 f0 ff ff       	callq  400db0 <__printf_chk@plt>
  401d29:	48 8b 84 24 08 40 00 	mov    0x4008(%rsp),%rax
  401d30:	00 
  401d31:	64 48 33 04 25 28 00 	xor    %fs:0x28,%rax
  401d38:	00 00 
  401d3a:	74 05                	je     401d41 <notify_server+0x1ea>
  401d3c:	e8 5f ef ff ff       	callq  400ca0 <__stack_chk_fail@plt>
  401d41:	48 81 c4 10 40 00 00 	add    $0x4010,%rsp
  401d48:	5b                   	pop    %rbx
  401d49:	c3                   	retq   

0000000000401d4a <validate>:
  401d4a:	53                   	push   %rbx
  401d4b:	89 fb                	mov    %edi,%ebx
  401d4d:	83 3d b4 27 20 00 00 	cmpl   $0x0,0x2027b4(%rip)        # 604508 <is_checker>
  401d54:	74 6b                	je     401dc1 <validate+0x77>
  401d56:	39 3d a0 27 20 00    	cmp    %edi,0x2027a0(%rip)        # 6044fc <vlevel>
  401d5c:	74 14                	je     401d72 <validate+0x28>
  401d5e:	bf 6a 33 40 00       	mov    $0x40336a,%edi
  401d63:	e8 18 ef ff ff       	callq  400c80 <puts@plt>
  401d68:	b8 00 00 00 00       	mov    $0x0,%eax
  401d6d:	e8 5e fd ff ff       	callq  401ad0 <check_fail>
  401d72:	8b 15 80 27 20 00    	mov    0x202780(%rip),%edx        # 6044f8 <check_level>
  401d78:	39 d7                	cmp    %edx,%edi
  401d7a:	74 20                	je     401d9c <validate+0x52>
  401d7c:	89 f9                	mov    %edi,%ecx
  401d7e:	be a8 34 40 00       	mov    $0x4034a8,%esi
  401d83:	bf 01 00 00 00       	mov    $0x1,%edi
  401d88:	b8 00 00 00 00       	mov    $0x0,%eax
  401d8d:	e8 1e f0 ff ff       	callq  400db0 <__printf_chk@plt>
  401d92:	b8 00 00 00 00       	mov    $0x0,%eax
  401d97:	e8 34 fd ff ff       	callq  401ad0 <check_fail>
  401d9c:	0f be 15 85 33 20 00 	movsbl 0x203385(%rip),%edx        # 605128 <target_prefix>
  401da3:	41 b8 20 45 60 00    	mov    $0x604520,%r8d
  401da9:	89 f9                	mov    %edi,%ecx
  401dab:	be 88 33 40 00       	mov    $0x403388,%esi
  401db0:	bf 01 00 00 00       	mov    $0x1,%edi
  401db5:	b8 00 00 00 00       	mov    $0x0,%eax
  401dba:	e8 f1 ef ff ff       	callq  400db0 <__printf_chk@plt>
  401dbf:	eb 49                	jmp    401e0a <validate+0xc0>
  401dc1:	3b 3d 35 27 20 00    	cmp    0x202735(%rip),%edi        # 6044fc <vlevel>
  401dc7:	74 18                	je     401de1 <validate+0x97>
  401dc9:	bf 6a 33 40 00       	mov    $0x40336a,%edi
  401dce:	e8 ad ee ff ff       	callq  400c80 <puts@plt>
  401dd3:	89 de                	mov    %ebx,%esi
  401dd5:	bf 00 00 00 00       	mov    $0x0,%edi
  401dda:	e8 78 fd ff ff       	callq  401b57 <notify_server>
  401ddf:	eb 29                	jmp    401e0a <validate+0xc0>
  401de1:	0f be 0d 40 33 20 00 	movsbl 0x203340(%rip),%ecx        # 605128 <target_prefix>
  401de8:	89 fa                	mov    %edi,%edx
  401dea:	be d0 34 40 00       	mov    $0x4034d0,%esi
  401def:	bf 01 00 00 00       	mov    $0x1,%edi
  401df4:	b8 00 00 00 00       	mov    $0x0,%eax
  401df9:	e8 b2 ef ff ff       	callq  400db0 <__printf_chk@plt>
  401dfe:	89 de                	mov    %ebx,%esi
  401e00:	bf 01 00 00 00       	mov    $0x1,%edi
  401e05:	e8 4d fd ff ff       	callq  401b57 <notify_server>
  401e0a:	5b                   	pop    %rbx
  401e0b:	c3                   	retq   

0000000000401e0c <fail>:
  401e0c:	48 83 ec 08          	sub    $0x8,%rsp
  401e10:	83 3d f1 26 20 00 00 	cmpl   $0x0,0x2026f1(%rip)        # 604508 <is_checker>
  401e17:	74 0a                	je     401e23 <fail+0x17>
  401e19:	b8 00 00 00 00       	mov    $0x0,%eax
  401e1e:	e8 ad fc ff ff       	callq  401ad0 <check_fail>
  401e23:	89 fe                	mov    %edi,%esi
  401e25:	bf 00 00 00 00       	mov    $0x0,%edi
  401e2a:	e8 28 fd ff ff       	callq  401b57 <notify_server>
  401e2f:	48 83 c4 08          	add    $0x8,%rsp
  401e33:	c3                   	retq   

0000000000401e34 <bushandler>:
  401e34:	48 83 ec 08          	sub    $0x8,%rsp
  401e38:	83 3d c9 26 20 00 00 	cmpl   $0x0,0x2026c9(%rip)        # 604508 <is_checker>
  401e3f:	74 14                	je     401e55 <bushandler+0x21>
  401e41:	bf 9d 33 40 00       	mov    $0x40339d,%edi
  401e46:	e8 35 ee ff ff       	callq  400c80 <puts@plt>
  401e4b:	b8 00 00 00 00       	mov    $0x0,%eax
  401e50:	e8 7b fc ff ff       	callq  401ad0 <check_fail>
  401e55:	bf 08 35 40 00       	mov    $0x403508,%edi
  401e5a:	e8 21 ee ff ff       	callq  400c80 <puts@plt>
  401e5f:	bf a7 33 40 00       	mov    $0x4033a7,%edi
  401e64:	e8 17 ee ff ff       	callq  400c80 <puts@plt>
  401e69:	be 00 00 00 00       	mov    $0x0,%esi
  401e6e:	bf 00 00 00 00       	mov    $0x0,%edi
  401e73:	e8 df fc ff ff       	callq  401b57 <notify_server>
  401e78:	bf 01 00 00 00       	mov    $0x1,%edi
  401e7d:	e8 7e ef ff ff       	callq  400e00 <exit@plt>

0000000000401e82 <seghandler>:
  401e82:	48 83 ec 08          	sub    $0x8,%rsp
  401e86:	83 3d 7b 26 20 00 00 	cmpl   $0x0,0x20267b(%rip)        # 604508 <is_checker>
  401e8d:	74 14                	je     401ea3 <seghandler+0x21>
  401e8f:	bf bd 33 40 00       	mov    $0x4033bd,%edi
  401e94:	e8 e7 ed ff ff       	callq  400c80 <puts@plt>
  401e99:	b8 00 00 00 00       	mov    $0x0,%eax
  401e9e:	e8 2d fc ff ff       	callq  401ad0 <check_fail>
  401ea3:	bf 28 35 40 00       	mov    $0x403528,%edi
  401ea8:	e8 d3 ed ff ff       	callq  400c80 <puts@plt>
  401ead:	bf a7 33 40 00       	mov    $0x4033a7,%edi
  401eb2:	e8 c9 ed ff ff       	callq  400c80 <puts@plt>
  401eb7:	be 00 00 00 00       	mov    $0x0,%esi
  401ebc:	bf 00 00 00 00       	mov    $0x0,%edi
  401ec1:	e8 91 fc ff ff       	callq  401b57 <notify_server>
  401ec6:	bf 01 00 00 00       	mov    $0x1,%edi
  401ecb:	e8 30 ef ff ff       	callq  400e00 <exit@plt>

0000000000401ed0 <illegalhandler>:
  401ed0:	48 83 ec 08          	sub    $0x8,%rsp
  401ed4:	83 3d 2d 26 20 00 00 	cmpl   $0x0,0x20262d(%rip)        # 604508 <is_checker>
  401edb:	74 14                	je     401ef1 <illegalhandler+0x21>
  401edd:	bf d0 33 40 00       	mov    $0x4033d0,%edi
  401ee2:	e8 99 ed ff ff       	callq  400c80 <puts@plt>
  401ee7:	b8 00 00 00 00       	mov    $0x0,%eax
  401eec:	e8 df fb ff ff       	callq  401ad0 <check_fail>
  401ef1:	bf 50 35 40 00       	mov    $0x403550,%edi
  401ef6:	e8 85 ed ff ff       	callq  400c80 <puts@plt>
  401efb:	bf a7 33 40 00       	mov    $0x4033a7,%edi
  401f00:	e8 7b ed ff ff       	callq  400c80 <puts@plt>
  401f05:	be 00 00 00 00       	mov    $0x0,%esi
  401f0a:	bf 00 00 00 00       	mov    $0x0,%edi
  401f0f:	e8 43 fc ff ff       	callq  401b57 <notify_server>
  401f14:	bf 01 00 00 00       	mov    $0x1,%edi
  401f19:	e8 e2 ee ff ff       	callq  400e00 <exit@plt>

0000000000401f1e <sigalrmhandler>:
  401f1e:	48 83 ec 08          	sub    $0x8,%rsp
  401f22:	83 3d df 25 20 00 00 	cmpl   $0x0,0x2025df(%rip)        # 604508 <is_checker>
  401f29:	74 14                	je     401f3f <sigalrmhandler+0x21>
  401f2b:	bf e4 33 40 00       	mov    $0x4033e4,%edi
  401f30:	e8 4b ed ff ff       	callq  400c80 <puts@plt>
  401f35:	b8 00 00 00 00       	mov    $0x0,%eax
  401f3a:	e8 91 fb ff ff       	callq  401ad0 <check_fail>
  401f3f:	ba 05 00 00 00       	mov    $0x5,%edx
  401f44:	be 80 35 40 00       	mov    $0x403580,%esi
  401f49:	bf 01 00 00 00       	mov    $0x1,%edi
  401f4e:	b8 00 00 00 00       	mov    $0x0,%eax
  401f53:	e8 58 ee ff ff       	callq  400db0 <__printf_chk@plt>
  401f58:	be 00 00 00 00       	mov    $0x0,%esi
  401f5d:	bf 00 00 00 00       	mov    $0x0,%edi
  401f62:	e8 f0 fb ff ff       	callq  401b57 <notify_server>
  401f67:	bf 01 00 00 00       	mov    $0x1,%edi
  401f6c:	e8 8f ee ff ff       	callq  400e00 <exit@plt>

0000000000401f71 <launch>:
  401f71:	55                   	push   %rbp
  401f72:	48 89 e5             	mov    %rsp,%rbp
  401f75:	48 83 ec 10          	sub    $0x10,%rsp
  401f79:	48 89 fa             	mov    %rdi,%rdx
  401f7c:	64 48 8b 04 25 28 00 	mov    %fs:0x28,%rax
  401f83:	00 00 
  401f85:	48 89 45 f8          	mov    %rax,-0x8(%rbp)
  401f89:	31 c0                	xor    %eax,%eax
  401f8b:	48 8d 47 1e          	lea    0x1e(%rdi),%rax
  401f8f:	48 83 e0 f0          	and    $0xfffffffffffffff0,%rax
  401f93:	48 29 c4             	sub    %rax,%rsp
  401f96:	48 8d 7c 24 0f       	lea    0xf(%rsp),%rdi
  401f9b:	48 83 e7 f0          	and    $0xfffffffffffffff0,%rdi
  401f9f:	be f4 00 00 00       	mov    $0xf4,%esi
  401fa4:	e8 17 ed ff ff       	callq  400cc0 <memset@plt>
  401fa9:	48 8b 05 f0 24 20 00 	mov    0x2024f0(%rip),%rax        # 6044a0 <stdin@@GLIBC_2.2.5>
  401fb0:	48 39 05 39 25 20 00 	cmp    %rax,0x202539(%rip)        # 6044f0 <infile>
  401fb7:	75 14                	jne    401fcd <launch+0x5c>
  401fb9:	be ec 33 40 00       	mov    $0x4033ec,%esi
  401fbe:	bf 01 00 00 00       	mov    $0x1,%edi
  401fc3:	b8 00 00 00 00       	mov    $0x0,%eax
  401fc8:	e8 e3 ed ff ff       	callq  400db0 <__printf_chk@plt>
  401fcd:	c7 05 25 25 20 00 00 	movl   $0x0,0x202525(%rip)        # 6044fc <vlevel>
  401fd4:	00 00 00 
  401fd7:	b8 00 00 00 00       	mov    $0x0,%eax
  401fdc:	e8 5b fa ff ff       	callq  401a3c <test>
  401fe1:	83 3d 20 25 20 00 00 	cmpl   $0x0,0x202520(%rip)        # 604508 <is_checker>
  401fe8:	74 14                	je     401ffe <launch+0x8d>
  401fea:	bf f9 33 40 00       	mov    $0x4033f9,%edi
  401fef:	e8 8c ec ff ff       	callq  400c80 <puts@plt>
  401ff4:	b8 00 00 00 00       	mov    $0x0,%eax
  401ff9:	e8 d2 fa ff ff       	callq  401ad0 <check_fail>
  401ffe:	bf 04 34 40 00       	mov    $0x403404,%edi
  402003:	e8 78 ec ff ff       	callq  400c80 <puts@plt>
  402008:	48 8b 45 f8          	mov    -0x8(%rbp),%rax
  40200c:	64 48 33 04 25 28 00 	xor    %fs:0x28,%rax
  402013:	00 00 
  402015:	74 05                	je     40201c <launch+0xab>
  402017:	e8 84 ec ff ff       	callq  400ca0 <__stack_chk_fail@plt>
  40201c:	c9                   	leaveq 
  40201d:	c3                   	retq   

000000000040201e <stable_launch>:
  40201e:	53                   	push   %rbx
  40201f:	48 89 3d c2 24 20 00 	mov    %rdi,0x2024c2(%rip)        # 6044e8 <global_offset>
  402026:	41 b9 00 00 00 00    	mov    $0x0,%r9d
  40202c:	41 b8 00 00 00 00    	mov    $0x0,%r8d
  402032:	b9 32 01 00 00       	mov    $0x132,%ecx
  402037:	ba 07 00 00 00       	mov    $0x7,%edx
  40203c:	be 00 00 10 00       	mov    $0x100000,%esi
  402041:	bf 00 60 58 55       	mov    $0x55586000,%edi
  402046:	e8 65 ec ff ff       	callq  400cb0 <mmap@plt>
  40204b:	48 89 c3             	mov    %rax,%rbx
  40204e:	48 3d 00 60 58 55    	cmp    $0x55586000,%rax
  402054:	74 37                	je     40208d <stable_launch+0x6f>
  402056:	be 00 00 10 00       	mov    $0x100000,%esi
  40205b:	48 89 c7             	mov    %rax,%rdi
  40205e:	e8 3d ed ff ff       	callq  400da0 <munmap@plt>
  402063:	b9 00 60 58 55       	mov    $0x55586000,%ecx
  402068:	ba b8 35 40 00       	mov    $0x4035b8,%edx
  40206d:	be 01 00 00 00       	mov    $0x1,%esi
  402072:	48 8b 3d 47 24 20 00 	mov    0x202447(%rip),%rdi        # 6044c0 <stderr@@GLIBC_2.2.5>
  402079:	b8 00 00 00 00       	mov    $0x0,%eax
  40207e:	e8 9d ed ff ff       	callq  400e20 <__fprintf_chk@plt>
  402083:	bf 01 00 00 00       	mov    $0x1,%edi
  402088:	e8 73 ed ff ff       	callq  400e00 <exit@plt>
  40208d:	48 8d 90 f8 ff 0f 00 	lea    0xffff8(%rax),%rdx
  402094:	48 89 15 95 30 20 00 	mov    %rdx,0x203095(%rip)        # 605130 <stack_top>
  40209b:	48 89 e0             	mov    %rsp,%rax
  40209e:	48 89 d4             	mov    %rdx,%rsp
  4020a1:	48 89 c2             	mov    %rax,%rdx
  4020a4:	48 89 15 35 24 20 00 	mov    %rdx,0x202435(%rip)        # 6044e0 <global_save_stack>
  4020ab:	48 8b 3d 36 24 20 00 	mov    0x202436(%rip),%rdi        # 6044e8 <global_offset>
  4020b2:	e8 ba fe ff ff       	callq  401f71 <launch>
  4020b7:	48 8b 05 22 24 20 00 	mov    0x202422(%rip),%rax        # 6044e0 <global_save_stack>
  4020be:	48 89 c4             	mov    %rax,%rsp
  4020c1:	be 00 00 10 00       	mov    $0x100000,%esi
  4020c6:	48 89 df             	mov    %rbx,%rdi
  4020c9:	e8 d2 ec ff ff       	callq  400da0 <munmap@plt>
  4020ce:	5b                   	pop    %rbx
  4020cf:	c3                   	retq   

00000000004020d0 <rio_readinitb>:
  4020d0:	89 37                	mov    %esi,(%rdi)
  4020d2:	c7 47 04 00 00 00 00 	movl   $0x0,0x4(%rdi)
  4020d9:	48 8d 47 10          	lea    0x10(%rdi),%rax
  4020dd:	48 89 47 08          	mov    %rax,0x8(%rdi)
  4020e1:	c3                   	retq   

00000000004020e2 <sigalrm_handler>:
  4020e2:	48 83 ec 08          	sub    $0x8,%rsp
  4020e6:	b9 00 00 00 00       	mov    $0x0,%ecx
  4020eb:	ba f0 35 40 00       	mov    $0x4035f0,%edx
  4020f0:	be 01 00 00 00       	mov    $0x1,%esi
  4020f5:	48 8b 3d c4 23 20 00 	mov    0x2023c4(%rip),%rdi        # 6044c0 <stderr@@GLIBC_2.2.5>
  4020fc:	b8 00 00 00 00       	mov    $0x0,%eax
  402101:	e8 1a ed ff ff       	callq  400e20 <__fprintf_chk@plt>
  402106:	bf 01 00 00 00       	mov    $0x1,%edi
  40210b:	e8 f0 ec ff ff       	callq  400e00 <exit@plt>

0000000000402110 <rio_writen>:
  402110:	41 55                	push   %r13
  402112:	41 54                	push   %r12
  402114:	55                   	push   %rbp
  402115:	53                   	push   %rbx
  402116:	48 83 ec 08          	sub    $0x8,%rsp
  40211a:	41 89 fc             	mov    %edi,%r12d
  40211d:	48 89 f5             	mov    %rsi,%rbp
  402120:	49 89 d5             	mov    %rdx,%r13
  402123:	48 89 d3             	mov    %rdx,%rbx
  402126:	eb 28                	jmp    402150 <rio_writen+0x40>
  402128:	48 89 da             	mov    %rbx,%rdx
  40212b:	48 89 ee             	mov    %rbp,%rsi
  40212e:	44 89 e7             	mov    %r12d,%edi
  402131:	e8 5a eb ff ff       	callq  400c90 <write@plt>
  402136:	48 85 c0             	test   %rax,%rax
  402139:	7f 0f                	jg     40214a <rio_writen+0x3a>
  40213b:	e8 00 eb ff ff       	callq  400c40 <__errno_location@plt>
  402140:	83 38 04             	cmpl   $0x4,(%rax)
  402143:	75 15                	jne    40215a <rio_writen+0x4a>
  402145:	b8 00 00 00 00       	mov    $0x0,%eax
  40214a:	48 29 c3             	sub    %rax,%rbx
  40214d:	48 01 c5             	add    %rax,%rbp
  402150:	48 85 db             	test   %rbx,%rbx
  402153:	75 d3                	jne    402128 <rio_writen+0x18>
  402155:	4c 89 e8             	mov    %r13,%rax
  402158:	eb 07                	jmp    402161 <rio_writen+0x51>
  40215a:	48 c7 c0 ff ff ff ff 	mov    $0xffffffffffffffff,%rax
  402161:	48 83 c4 08          	add    $0x8,%rsp
  402165:	5b                   	pop    %rbx
  402166:	5d                   	pop    %rbp
  402167:	41 5c                	pop    %r12
  402169:	41 5d                	pop    %r13
  40216b:	c3                   	retq   

000000000040216c <rio_read>:
  40216c:	41 55                	push   %r13
  40216e:	41 54                	push   %r12
  402170:	55                   	push   %rbp
  402171:	53                   	push   %rbx
  402172:	48 83 ec 08          	sub    $0x8,%rsp
  402176:	48 89 fb             	mov    %rdi,%rbx
  402179:	49 89 f5             	mov    %rsi,%r13
  40217c:	49 89 d4             	mov    %rdx,%r12
  40217f:	eb 2e                	jmp    4021af <rio_read+0x43>
  402181:	48 8d 6b 10          	lea    0x10(%rbx),%rbp
  402185:	8b 3b                	mov    (%rbx),%edi
  402187:	ba 00 20 00 00       	mov    $0x2000,%edx
  40218c:	48 89 ee             	mov    %rbp,%rsi
  40218f:	e8 5c eb ff ff       	callq  400cf0 <read@plt>
  402194:	89 43 04             	mov    %eax,0x4(%rbx)
  402197:	85 c0                	test   %eax,%eax
  402199:	79 0c                	jns    4021a7 <rio_read+0x3b>
  40219b:	e8 a0 ea ff ff       	callq  400c40 <__errno_location@plt>
  4021a0:	83 38 04             	cmpl   $0x4,(%rax)
  4021a3:	74 0a                	je     4021af <rio_read+0x43>
  4021a5:	eb 37                	jmp    4021de <rio_read+0x72>
  4021a7:	85 c0                	test   %eax,%eax
  4021a9:	74 3c                	je     4021e7 <rio_read+0x7b>
  4021ab:	48 89 6b 08          	mov    %rbp,0x8(%rbx)
  4021af:	8b 6b 04             	mov    0x4(%rbx),%ebp
  4021b2:	85 ed                	test   %ebp,%ebp
  4021b4:	7e cb                	jle    402181 <rio_read+0x15>
  4021b6:	89 e8                	mov    %ebp,%eax
  4021b8:	49 39 c4             	cmp    %rax,%r12
  4021bb:	77 03                	ja     4021c0 <rio_read+0x54>
  4021bd:	44 89 e5             	mov    %r12d,%ebp
  4021c0:	4c 63 e5             	movslq %ebp,%r12
  4021c3:	48 8b 73 08          	mov    0x8(%rbx),%rsi
  4021c7:	4c 89 e2             	mov    %r12,%rdx
  4021ca:	4c 89 ef             	mov    %r13,%rdi
  4021cd:	e8 7e eb ff ff       	callq  400d50 <memcpy@plt>
  4021d2:	4c 01 63 08          	add    %r12,0x8(%rbx)
  4021d6:	29 6b 04             	sub    %ebp,0x4(%rbx)
  4021d9:	4c 89 e0             	mov    %r12,%rax
  4021dc:	eb 0e                	jmp    4021ec <rio_read+0x80>
  4021de:	48 c7 c0 ff ff ff ff 	mov    $0xffffffffffffffff,%rax
  4021e5:	eb 05                	jmp    4021ec <rio_read+0x80>
  4021e7:	b8 00 00 00 00       	mov    $0x0,%eax
  4021ec:	48 83 c4 08          	add    $0x8,%rsp
  4021f0:	5b                   	pop    %rbx
  4021f1:	5d                   	pop    %rbp
  4021f2:	41 5c                	pop    %r12
  4021f4:	41 5d                	pop    %r13
  4021f6:	c3                   	retq   

00000000004021f7 <rio_readlineb>:
  4021f7:	41 55                	push   %r13
  4021f9:	41 54                	push   %r12
  4021fb:	55                   	push   %rbp
  4021fc:	53                   	push   %rbx
  4021fd:	48 83 ec 18          	sub    $0x18,%rsp
  402201:	49 89 fd             	mov    %rdi,%r13
  402204:	48 89 f5             	mov    %rsi,%rbp
  402207:	49 89 d4             	mov    %rdx,%r12
  40220a:	64 48 8b 04 25 28 00 	mov    %fs:0x28,%rax
  402211:	00 00 
  402213:	48 89 44 24 08       	mov    %rax,0x8(%rsp)
  402218:	31 c0                	xor    %eax,%eax
  40221a:	bb 01 00 00 00       	mov    $0x1,%ebx
  40221f:	eb 3f                	jmp    402260 <rio_readlineb+0x69>
  402221:	ba 01 00 00 00       	mov    $0x1,%edx
  402226:	48 8d 74 24 07       	lea    0x7(%rsp),%rsi
  40222b:	4c 89 ef             	mov    %r13,%rdi
  40222e:	e8 39 ff ff ff       	callq  40216c <rio_read>
  402233:	83 f8 01             	cmp    $0x1,%eax
  402236:	75 15                	jne    40224d <rio_readlineb+0x56>
  402238:	48 8d 45 01          	lea    0x1(%rbp),%rax
  40223c:	0f b6 54 24 07       	movzbl 0x7(%rsp),%edx
  402241:	88 55 00             	mov    %dl,0x0(%rbp)
  402244:	80 7c 24 07 0a       	cmpb   $0xa,0x7(%rsp)
  402249:	75 0e                	jne    402259 <rio_readlineb+0x62>
  40224b:	eb 1a                	jmp    402267 <rio_readlineb+0x70>
  40224d:	85 c0                	test   %eax,%eax
  40224f:	75 22                	jne    402273 <rio_readlineb+0x7c>
  402251:	48 83 fb 01          	cmp    $0x1,%rbx
  402255:	75 13                	jne    40226a <rio_readlineb+0x73>
  402257:	eb 23                	jmp    40227c <rio_readlineb+0x85>
  402259:	48 83 c3 01          	add    $0x1,%rbx
  40225d:	48 89 c5             	mov    %rax,%rbp
  402260:	4c 39 e3             	cmp    %r12,%rbx
  402263:	72 bc                	jb     402221 <rio_readlineb+0x2a>
  402265:	eb 03                	jmp    40226a <rio_readlineb+0x73>
  402267:	48 89 c5             	mov    %rax,%rbp
  40226a:	c6 45 00 00          	movb   $0x0,0x0(%rbp)
  40226e:	48 89 d8             	mov    %rbx,%rax
  402271:	eb 0e                	jmp    402281 <rio_readlineb+0x8a>
  402273:	48 c7 c0 ff ff ff ff 	mov    $0xffffffffffffffff,%rax
  40227a:	eb 05                	jmp    402281 <rio_readlineb+0x8a>
  40227c:	b8 00 00 00 00       	mov    $0x0,%eax
  402281:	48 8b 4c 24 08       	mov    0x8(%rsp),%rcx
  402286:	64 48 33 0c 25 28 00 	xor    %fs:0x28,%rcx
  40228d:	00 00 
  40228f:	74 05                	je     402296 <rio_readlineb+0x9f>
  402291:	e8 0a ea ff ff       	callq  400ca0 <__stack_chk_fail@plt>
  402296:	48 83 c4 18          	add    $0x18,%rsp
  40229a:	5b                   	pop    %rbx
  40229b:	5d                   	pop    %rbp
  40229c:	41 5c                	pop    %r12
  40229e:	41 5d                	pop    %r13
  4022a0:	c3                   	retq   

00000000004022a1 <urlencode>:
  4022a1:	41 54                	push   %r12
  4022a3:	55                   	push   %rbp
  4022a4:	53                   	push   %rbx
  4022a5:	48 83 ec 10          	sub    $0x10,%rsp
  4022a9:	48 89 fb             	mov    %rdi,%rbx
  4022ac:	48 89 f5             	mov    %rsi,%rbp
  4022af:	64 48 8b 04 25 28 00 	mov    %fs:0x28,%rax
  4022b6:	00 00 
  4022b8:	48 89 44 24 08       	mov    %rax,0x8(%rsp)
  4022bd:	31 c0                	xor    %eax,%eax
  4022bf:	48 c7 c1 ff ff ff ff 	mov    $0xffffffffffffffff,%rcx
  4022c6:	f2 ae                	repnz scas %es:(%rdi),%al
  4022c8:	48 f7 d1             	not    %rcx
  4022cb:	8d 41 ff             	lea    -0x1(%rcx),%eax
  4022ce:	e9 aa 00 00 00       	jmpq   40237d <urlencode+0xdc>
  4022d3:	44 0f b6 03          	movzbl (%rbx),%r8d
  4022d7:	41 80 f8 2a          	cmp    $0x2a,%r8b
  4022db:	0f 94 c2             	sete   %dl
  4022de:	41 80 f8 2d          	cmp    $0x2d,%r8b
  4022e2:	0f 94 c0             	sete   %al
  4022e5:	08 c2                	or     %al,%dl
  4022e7:	75 24                	jne    40230d <urlencode+0x6c>
  4022e9:	41 80 f8 2e          	cmp    $0x2e,%r8b
  4022ed:	74 1e                	je     40230d <urlencode+0x6c>
  4022ef:	41 80 f8 5f          	cmp    $0x5f,%r8b
  4022f3:	74 18                	je     40230d <urlencode+0x6c>
  4022f5:	41 8d 40 d0          	lea    -0x30(%r8),%eax
  4022f9:	3c 09                	cmp    $0x9,%al
  4022fb:	76 10                	jbe    40230d <urlencode+0x6c>
  4022fd:	41 8d 40 bf          	lea    -0x41(%r8),%eax
  402301:	3c 19                	cmp    $0x19,%al
  402303:	76 08                	jbe    40230d <urlencode+0x6c>
  402305:	41 8d 40 9f          	lea    -0x61(%r8),%eax
  402309:	3c 19                	cmp    $0x19,%al
  40230b:	77 0a                	ja     402317 <urlencode+0x76>
  40230d:	44 88 45 00          	mov    %r8b,0x0(%rbp)
  402311:	48 8d 6d 01          	lea    0x1(%rbp),%rbp
  402315:	eb 5f                	jmp    402376 <urlencode+0xd5>
  402317:	41 80 f8 20          	cmp    $0x20,%r8b
  40231b:	75 0a                	jne    402327 <urlencode+0x86>
  40231d:	c6 45 00 2b          	movb   $0x2b,0x0(%rbp)
  402321:	48 8d 6d 01          	lea    0x1(%rbp),%rbp
  402325:	eb 4f                	jmp    402376 <urlencode+0xd5>
  402327:	41 8d 40 e0          	lea    -0x20(%r8),%eax
  40232b:	3c 5f                	cmp    $0x5f,%al
  40232d:	0f 96 c2             	setbe  %dl
  402330:	41 80 f8 09          	cmp    $0x9,%r8b
  402334:	0f 94 c0             	sete   %al
  402337:	08 c2                	or     %al,%dl
  402339:	74 50                	je     40238b <urlencode+0xea>
  40233b:	45 0f b6 c0          	movzbl %r8b,%r8d
  40233f:	b9 88 36 40 00       	mov    $0x403688,%ecx
  402344:	ba 08 00 00 00       	mov    $0x8,%edx
  402349:	be 01 00 00 00       	mov    $0x1,%esi
  40234e:	48 89 e7             	mov    %rsp,%rdi
  402351:	b8 00 00 00 00       	mov    $0x0,%eax
  402356:	e8 d5 ea ff ff       	callq  400e30 <__sprintf_chk@plt>
  40235b:	0f b6 04 24          	movzbl (%rsp),%eax
  40235f:	88 45 00             	mov    %al,0x0(%rbp)
  402362:	0f b6 44 24 01       	movzbl 0x1(%rsp),%eax
  402367:	88 45 01             	mov    %al,0x1(%rbp)
  40236a:	0f b6 44 24 02       	movzbl 0x2(%rsp),%eax
  40236f:	88 45 02             	mov    %al,0x2(%rbp)
  402372:	48 8d 6d 03          	lea    0x3(%rbp),%rbp
  402376:	48 83 c3 01          	add    $0x1,%rbx
  40237a:	44 89 e0             	mov    %r12d,%eax
  40237d:	44 8d 60 ff          	lea    -0x1(%rax),%r12d
  402381:	85 c0                	test   %eax,%eax
  402383:	0f 85 4a ff ff ff    	jne    4022d3 <urlencode+0x32>
  402389:	eb 05                	jmp    402390 <urlencode+0xef>
  40238b:	b8 ff ff ff ff       	mov    $0xffffffff,%eax
  402390:	48 8b 74 24 08       	mov    0x8(%rsp),%rsi
  402395:	64 48 33 34 25 28 00 	xor    %fs:0x28,%rsi
  40239c:	00 00 
  40239e:	74 05                	je     4023a5 <urlencode+0x104>
  4023a0:	e8 fb e8 ff ff       	callq  400ca0 <__stack_chk_fail@plt>
  4023a5:	48 83 c4 10          	add    $0x10,%rsp
  4023a9:	5b                   	pop    %rbx
  4023aa:	5d                   	pop    %rbp
  4023ab:	41 5c                	pop    %r12
  4023ad:	c3                   	retq   

00000000004023ae <submitr>:
  4023ae:	41 57                	push   %r15
  4023b0:	41 56                	push   %r14
  4023b2:	41 55                	push   %r13
  4023b4:	41 54                	push   %r12
  4023b6:	55                   	push   %rbp
  4023b7:	53                   	push   %rbx
  4023b8:	48 81 ec 58 a0 00 00 	sub    $0xa058,%rsp
  4023bf:	49 89 fc             	mov    %rdi,%r12
  4023c2:	89 74 24 04          	mov    %esi,0x4(%rsp)
  4023c6:	49 89 d7             	mov    %rdx,%r15
  4023c9:	49 89 ce             	mov    %rcx,%r14
  4023cc:	4c 89 44 24 08       	mov    %r8,0x8(%rsp)
  4023d1:	4d 89 cd             	mov    %r9,%r13
  4023d4:	48 8b 9c 24 90 a0 00 	mov    0xa090(%rsp),%rbx
  4023db:	00 
  4023dc:	64 48 8b 04 25 28 00 	mov    %fs:0x28,%rax
  4023e3:	00 00 
  4023e5:	48 89 84 24 48 a0 00 	mov    %rax,0xa048(%rsp)
  4023ec:	00 
  4023ed:	31 c0                	xor    %eax,%eax
  4023ef:	c7 44 24 1c 00 00 00 	movl   $0x0,0x1c(%rsp)
  4023f6:	00 
  4023f7:	ba 00 00 00 00       	mov    $0x0,%edx
  4023fc:	be 01 00 00 00       	mov    $0x1,%esi
  402401:	bf 02 00 00 00       	mov    $0x2,%edi
  402406:	e8 35 ea ff ff       	callq  400e40 <socket@plt>
  40240b:	85 c0                	test   %eax,%eax
  40240d:	79 4e                	jns    40245d <submitr+0xaf>
  40240f:	48 b8 45 72 72 6f 72 	movabs $0x43203a726f727245,%rax
  402416:	3a 20 43 
  402419:	48 89 03             	mov    %rax,(%rbx)
  40241c:	48 b8 6c 69 65 6e 74 	movabs $0x6e7520746e65696c,%rax
  402423:	20 75 6e 
  402426:	48 89 43 08          	mov    %rax,0x8(%rbx)
  40242a:	48 b8 61 62 6c 65 20 	movabs $0x206f7420656c6261,%rax
  402431:	74 6f 20 
  402434:	48 89 43 10          	mov    %rax,0x10(%rbx)
  402438:	48 b8 63 72 65 61 74 	movabs $0x7320657461657263,%rax
  40243f:	65 20 73 
  402442:	48 89 43 18          	mov    %rax,0x18(%rbx)
  402446:	c7 43 20 6f 63 6b 65 	movl   $0x656b636f,0x20(%rbx)
  40244d:	66 c7 43 24 74 00    	movw   $0x74,0x24(%rbx)
  402453:	b8 ff ff ff ff       	mov    $0xffffffff,%eax
  402458:	e9 97 06 00 00       	jmpq   402af4 <submitr+0x746>
  40245d:	89 c5                	mov    %eax,%ebp
  40245f:	4c 89 e7             	mov    %r12,%rdi
  402462:	e8 b9 e8 ff ff       	callq  400d20 <gethostbyname@plt>
  402467:	48 85 c0             	test   %rax,%rax
  40246a:	75 67                	jne    4024d3 <submitr+0x125>
  40246c:	48 b8 45 72 72 6f 72 	movabs $0x44203a726f727245,%rax
  402473:	3a 20 44 
  402476:	48 89 03             	mov    %rax,(%rbx)
  402479:	48 b8 4e 53 20 69 73 	movabs $0x6e7520736920534e,%rax
  402480:	20 75 6e 
  402483:	48 89 43 08          	mov    %rax,0x8(%rbx)
  402487:	48 b8 61 62 6c 65 20 	movabs $0x206f7420656c6261,%rax
  40248e:	74 6f 20 
  402491:	48 89 43 10          	mov    %rax,0x10(%rbx)
  402495:	48 b8 72 65 73 6f 6c 	movabs $0x2065766c6f736572,%rax
  40249c:	76 65 20 
  40249f:	48 89 43 18          	mov    %rax,0x18(%rbx)
  4024a3:	48 b8 73 65 72 76 65 	movabs $0x6120726576726573,%rax
  4024aa:	72 20 61 
  4024ad:	48 89 43 20          	mov    %rax,0x20(%rbx)
  4024b1:	c7 43 28 64 64 72 65 	movl   $0x65726464,0x28(%rbx)
  4024b8:	66 c7 43 2c 73 73    	movw   $0x7373,0x2c(%rbx)
  4024be:	c6 43 2e 00          	movb   $0x0,0x2e(%rbx)
  4024c2:	89 ef                	mov    %ebp,%edi
  4024c4:	e8 17 e8 ff ff       	callq  400ce0 <close@plt>
  4024c9:	b8 ff ff ff ff       	mov    $0xffffffff,%eax
  4024ce:	e9 21 06 00 00       	jmpq   402af4 <submitr+0x746>
  4024d3:	48 c7 44 24 20 00 00 	movq   $0x0,0x20(%rsp)
  4024da:	00 00 
  4024dc:	48 c7 44 24 28 00 00 	movq   $0x0,0x28(%rsp)
  4024e3:	00 00 
  4024e5:	66 c7 44 24 20 02 00 	movw   $0x2,0x20(%rsp)
  4024ec:	48 63 50 14          	movslq 0x14(%rax),%rdx
  4024f0:	48 8b 40 18          	mov    0x18(%rax),%rax
  4024f4:	48 8b 30             	mov    (%rax),%rsi
  4024f7:	48 8d 7c 24 24       	lea    0x24(%rsp),%rdi
  4024fc:	b9 0c 00 00 00       	mov    $0xc,%ecx
  402501:	e8 2a e8 ff ff       	callq  400d30 <__memmove_chk@plt>
  402506:	0f b7 44 24 04       	movzwl 0x4(%rsp),%eax
  40250b:	66 c1 c8 08          	ror    $0x8,%ax
  40250f:	66 89 44 24 22       	mov    %ax,0x22(%rsp)
  402514:	ba 10 00 00 00       	mov    $0x10,%edx
  402519:	48 8d 74 24 20       	lea    0x20(%rsp),%rsi
  40251e:	89 ef                	mov    %ebp,%edi
  402520:	e8 eb e8 ff ff       	callq  400e10 <connect@plt>
  402525:	85 c0                	test   %eax,%eax
  402527:	79 59                	jns    402582 <submitr+0x1d4>
  402529:	48 b8 45 72 72 6f 72 	movabs $0x55203a726f727245,%rax
  402530:	3a 20 55 
  402533:	48 89 03             	mov    %rax,(%rbx)
  402536:	48 b8 6e 61 62 6c 65 	movabs $0x6f7420656c62616e,%rax
  40253d:	20 74 6f 
  402540:	48 89 43 08          	mov    %rax,0x8(%rbx)
  402544:	48 b8 20 63 6f 6e 6e 	movabs $0x7463656e6e6f6320,%rax
  40254b:	65 63 74 
  40254e:	48 89 43 10          	mov    %rax,0x10(%rbx)
  402552:	48 b8 20 74 6f 20 74 	movabs $0x20656874206f7420,%rax
  402559:	68 65 20 
  40255c:	48 89 43 18          	mov    %rax,0x18(%rbx)
  402560:	c7 43 20 73 65 72 76 	movl   $0x76726573,0x20(%rbx)
  402567:	66 c7 43 24 65 72    	movw   $0x7265,0x24(%rbx)
  40256d:	c6 43 26 00          	movb   $0x0,0x26(%rbx)
  402571:	89 ef                	mov    %ebp,%edi
  402573:	e8 68 e7 ff ff       	callq  400ce0 <close@plt>
  402578:	b8 ff ff ff ff       	mov    $0xffffffff,%eax
  40257d:	e9 72 05 00 00       	jmpq   402af4 <submitr+0x746>
  402582:	48 c7 c6 ff ff ff ff 	mov    $0xffffffffffffffff,%rsi
  402589:	b8 00 00 00 00       	mov    $0x0,%eax
  40258e:	48 89 f1             	mov    %rsi,%rcx
  402591:	4c 89 ef             	mov    %r13,%rdi
  402594:	f2 ae                	repnz scas %es:(%rdi),%al
  402596:	48 f7 d1             	not    %rcx
  402599:	48 89 ca             	mov    %rcx,%rdx
  40259c:	48 89 f1             	mov    %rsi,%rcx
  40259f:	4c 89 ff             	mov    %r15,%rdi
  4025a2:	f2 ae                	repnz scas %es:(%rdi),%al
  4025a4:	48 f7 d1             	not    %rcx
  4025a7:	49 89 c8             	mov    %rcx,%r8
  4025aa:	48 89 f1             	mov    %rsi,%rcx
  4025ad:	4c 89 f7             	mov    %r14,%rdi
  4025b0:	f2 ae                	repnz scas %es:(%rdi),%al
  4025b2:	48 f7 d1             	not    %rcx
  4025b5:	4d 8d 44 08 fe       	lea    -0x2(%r8,%rcx,1),%r8
  4025ba:	48 89 f1             	mov    %rsi,%rcx
  4025bd:	48 8b 7c 24 08       	mov    0x8(%rsp),%rdi
  4025c2:	f2 ae                	repnz scas %es:(%rdi),%al
  4025c4:	48 89 c8             	mov    %rcx,%rax
  4025c7:	48 f7 d0             	not    %rax
  4025ca:	49 8d 4c 00 ff       	lea    -0x1(%r8,%rax,1),%rcx
  4025cf:	48 8d 44 52 fd       	lea    -0x3(%rdx,%rdx,2),%rax
  4025d4:	48 8d 84 01 80 00 00 	lea    0x80(%rcx,%rax,1),%rax
  4025db:	00 
  4025dc:	48 3d 00 20 00 00    	cmp    $0x2000,%rax
  4025e2:	76 72                	jbe    402656 <submitr+0x2a8>
  4025e4:	48 b8 45 72 72 6f 72 	movabs $0x52203a726f727245,%rax
  4025eb:	3a 20 52 
  4025ee:	48 89 03             	mov    %rax,(%rbx)
  4025f1:	48 b8 65 73 75 6c 74 	movabs $0x747320746c757365,%rax
  4025f8:	20 73 74 
  4025fb:	48 89 43 08          	mov    %rax,0x8(%rbx)
  4025ff:	48 b8 72 69 6e 67 20 	movabs $0x6f6f7420676e6972,%rax
  402606:	74 6f 6f 
  402609:	48 89 43 10          	mov    %rax,0x10(%rbx)
  40260d:	48 b8 20 6c 61 72 67 	movabs $0x202e656772616c20,%rax
  402614:	65 2e 20 
  402617:	48 89 43 18          	mov    %rax,0x18(%rbx)
  40261b:	48 b8 49 6e 63 72 65 	movabs $0x6573616572636e49,%rax
  402622:	61 73 65 
  402625:	48 89 43 20          	mov    %rax,0x20(%rbx)
  402629:	48 b8 20 53 55 42 4d 	movabs $0x5254494d42555320,%rax
  402630:	49 54 52 
  402633:	48 89 43 28          	mov    %rax,0x28(%rbx)
  402637:	48 b8 5f 4d 41 58 42 	movabs $0x46554258414d5f,%rax
  40263e:	55 46 00 
  402641:	48 89 43 30          	mov    %rax,0x30(%rbx)
  402645:	89 ef                	mov    %ebp,%edi
  402647:	e8 94 e6 ff ff       	callq  400ce0 <close@plt>
  40264c:	b8 ff ff ff ff       	mov    $0xffffffff,%eax
  402651:	e9 9e 04 00 00       	jmpq   402af4 <submitr+0x746>
  402656:	48 8d b4 24 40 40 00 	lea    0x4040(%rsp),%rsi
  40265d:	00 
  40265e:	b9 00 04 00 00       	mov    $0x400,%ecx
  402663:	b8 00 00 00 00       	mov    $0x0,%eax
  402668:	48 89 f7             	mov    %rsi,%rdi
  40266b:	f3 48 ab             	rep stos %rax,%es:(%rdi)
  40266e:	4c 89 ef             	mov    %r13,%rdi
  402671:	e8 2b fc ff ff       	callq  4022a1 <urlencode>
  402676:	85 c0                	test   %eax,%eax
  402678:	0f 89 8a 00 00 00    	jns    402708 <submitr+0x35a>
  40267e:	48 b8 45 72 72 6f 72 	movabs $0x52203a726f727245,%rax
  402685:	3a 20 52 
  402688:	48 89 03             	mov    %rax,(%rbx)
  40268b:	48 b8 65 73 75 6c 74 	movabs $0x747320746c757365,%rax
  402692:	20 73 74 
  402695:	48 89 43 08          	mov    %rax,0x8(%rbx)
  402699:	48 b8 72 69 6e 67 20 	movabs $0x6e6f6320676e6972,%rax
  4026a0:	63 6f 6e 
  4026a3:	48 89 43 10          	mov    %rax,0x10(%rbx)
  4026a7:	48 b8 74 61 69 6e 73 	movabs $0x6e6120736e696174,%rax
  4026ae:	20 61 6e 
  4026b1:	48 89 43 18          	mov    %rax,0x18(%rbx)
  4026b5:	48 b8 20 69 6c 6c 65 	movabs $0x6c6167656c6c6920,%rax
  4026bc:	67 61 6c 
  4026bf:	48 89 43 20          	mov    %rax,0x20(%rbx)
  4026c3:	48 b8 20 6f 72 20 75 	movabs $0x72706e7520726f20,%rax
  4026ca:	6e 70 72 
  4026cd:	48 89 43 28          	mov    %rax,0x28(%rbx)
  4026d1:	48 b8 69 6e 74 61 62 	movabs $0x20656c6261746e69,%rax
  4026d8:	6c 65 20 
  4026db:	48 89 43 30          	mov    %rax,0x30(%rbx)
  4026df:	48 b8 63 68 61 72 61 	movabs $0x6574636172616863,%rax
  4026e6:	63 74 65 
  4026e9:	48 89 43 38          	mov    %rax,0x38(%rbx)
  4026ed:	66 c7 43 40 72 2e    	movw   $0x2e72,0x40(%rbx)
  4026f3:	c6 43 42 00          	movb   $0x0,0x42(%rbx)
  4026f7:	89 ef                	mov    %ebp,%edi
  4026f9:	e8 e2 e5 ff ff       	callq  400ce0 <close@plt>
  4026fe:	b8 ff ff ff ff       	mov    $0xffffffff,%eax
  402703:	e9 ec 03 00 00       	jmpq   402af4 <submitr+0x746>
  402708:	4c 8d ac 24 40 20 00 	lea    0x2040(%rsp),%r13
  40270f:	00 
  402710:	41 54                	push   %r12
  402712:	48 8d 84 24 48 40 00 	lea    0x4048(%rsp),%rax
  402719:	00 
  40271a:	50                   	push   %rax
  40271b:	4d 89 f9             	mov    %r15,%r9
  40271e:	4d 89 f0             	mov    %r14,%r8
  402721:	b9 18 36 40 00       	mov    $0x403618,%ecx
  402726:	ba 00 20 00 00       	mov    $0x2000,%edx
  40272b:	be 01 00 00 00       	mov    $0x1,%esi
  402730:	4c 89 ef             	mov    %r13,%rdi
  402733:	b8 00 00 00 00       	mov    $0x0,%eax
  402738:	e8 f3 e6 ff ff       	callq  400e30 <__sprintf_chk@plt>
  40273d:	b8 00 00 00 00       	mov    $0x0,%eax
  402742:	48 c7 c1 ff ff ff ff 	mov    $0xffffffffffffffff,%rcx
  402749:	4c 89 ef             	mov    %r13,%rdi
  40274c:	f2 ae                	repnz scas %es:(%rdi),%al
  40274e:	48 f7 d1             	not    %rcx
  402751:	48 8d 51 ff          	lea    -0x1(%rcx),%rdx
  402755:	4c 89 ee             	mov    %r13,%rsi
  402758:	89 ef                	mov    %ebp,%edi
  40275a:	e8 b1 f9 ff ff       	callq  402110 <rio_writen>
  40275f:	48 83 c4 10          	add    $0x10,%rsp
  402763:	48 85 c0             	test   %rax,%rax
  402766:	79 6e                	jns    4027d6 <submitr+0x428>
  402768:	48 b8 45 72 72 6f 72 	movabs $0x43203a726f727245,%rax
  40276f:	3a 20 43 
  402772:	48 89 03             	mov    %rax,(%rbx)
  402775:	48 b8 6c 69 65 6e 74 	movabs $0x6e7520746e65696c,%rax
  40277c:	20 75 6e 
  40277f:	48 89 43 08          	mov    %rax,0x8(%rbx)
  402783:	48 b8 61 62 6c 65 20 	movabs $0x206f7420656c6261,%rax
  40278a:	74 6f 20 
  40278d:	48 89 43 10          	mov    %rax,0x10(%rbx)
  402791:	48 b8 77 72 69 74 65 	movabs $0x6f74206574697277,%rax
  402798:	20 74 6f 
  40279b:	48 89 43 18          	mov    %rax,0x18(%rbx)
  40279f:	48 b8 20 74 68 65 20 	movabs $0x7365722065687420,%rax
  4027a6:	72 65 73 
  4027a9:	48 89 43 20          	mov    %rax,0x20(%rbx)
  4027ad:	48 b8 75 6c 74 20 73 	movabs $0x7672657320746c75,%rax
  4027b4:	65 72 76 
  4027b7:	48 89 43 28          	mov    %rax,0x28(%rbx)
  4027bb:	66 c7 43 30 65 72    	movw   $0x7265,0x30(%rbx)
  4027c1:	c6 43 32 00          	movb   $0x0,0x32(%rbx)
  4027c5:	89 ef                	mov    %ebp,%edi
  4027c7:	e8 14 e5 ff ff       	callq  400ce0 <close@plt>
  4027cc:	b8 ff ff ff ff       	mov    $0xffffffff,%eax
  4027d1:	e9 1e 03 00 00       	jmpq   402af4 <submitr+0x746>
  4027d6:	89 ee                	mov    %ebp,%esi
  4027d8:	48 8d 7c 24 30       	lea    0x30(%rsp),%rdi
  4027dd:	e8 ee f8 ff ff       	callq  4020d0 <rio_readinitb>
  4027e2:	ba 00 20 00 00       	mov    $0x2000,%edx
  4027e7:	48 8d b4 24 40 20 00 	lea    0x2040(%rsp),%rsi
  4027ee:	00 
  4027ef:	48 8d 7c 24 30       	lea    0x30(%rsp),%rdi
  4027f4:	e8 fe f9 ff ff       	callq  4021f7 <rio_readlineb>
  4027f9:	48 85 c0             	test   %rax,%rax
  4027fc:	7f 7d                	jg     40287b <submitr+0x4cd>
  4027fe:	48 b8 45 72 72 6f 72 	movabs $0x43203a726f727245,%rax
  402805:	3a 20 43 
  402808:	48 89 03             	mov    %rax,(%rbx)
  40280b:	48 b8 6c 69 65 6e 74 	movabs $0x6e7520746e65696c,%rax
  402812:	20 75 6e 
  402815:	48 89 43 08          	mov    %rax,0x8(%rbx)
  402819:	48 b8 61 62 6c 65 20 	movabs $0x206f7420656c6261,%rax
  402820:	74 6f 20 
  402823:	48 89 43 10          	mov    %rax,0x10(%rbx)
  402827:	48 b8 72 65 61 64 20 	movabs $0x7269662064616572,%rax
  40282e:	66 69 72 
  402831:	48 89 43 18          	mov    %rax,0x18(%rbx)
  402835:	48 b8 73 74 20 68 65 	movabs $0x6564616568207473,%rax
  40283c:	61 64 65 
  40283f:	48 89 43 20          	mov    %rax,0x20(%rbx)
  402843:	48 b8 72 20 66 72 6f 	movabs $0x72206d6f72662072,%rax
  40284a:	6d 20 72 
  40284d:	48 89 43 28          	mov    %rax,0x28(%rbx)
  402851:	48 b8 65 73 75 6c 74 	movabs $0x657320746c757365,%rax
  402858:	20 73 65 
  40285b:	48 89 43 30          	mov    %rax,0x30(%rbx)
  40285f:	c7 43 38 72 76 65 72 	movl   $0x72657672,0x38(%rbx)
  402866:	c6 43 3c 00          	movb   $0x0,0x3c(%rbx)
  40286a:	89 ef                	mov    %ebp,%edi
  40286c:	e8 6f e4 ff ff       	callq  400ce0 <close@plt>
  402871:	b8 ff ff ff ff       	mov    $0xffffffff,%eax
  402876:	e9 79 02 00 00       	jmpq   402af4 <submitr+0x746>
  40287b:	4c 8d 84 24 40 80 00 	lea    0x8040(%rsp),%r8
  402882:	00 
  402883:	48 8d 4c 24 1c       	lea    0x1c(%rsp),%rcx
  402888:	48 8d 94 24 40 60 00 	lea    0x6040(%rsp),%rdx
  40288f:	00 
  402890:	be 8f 36 40 00       	mov    $0x40368f,%esi
  402895:	48 8d bc 24 40 20 00 	lea    0x2040(%rsp),%rdi
  40289c:	00 
  40289d:	b8 00 00 00 00       	mov    $0x0,%eax
  4028a2:	e8 e9 e4 ff ff       	callq  400d90 <__isoc99_sscanf@plt>
  4028a7:	e9 95 00 00 00       	jmpq   402941 <submitr+0x593>
  4028ac:	ba 00 20 00 00       	mov    $0x2000,%edx
  4028b1:	48 8d b4 24 40 20 00 	lea    0x2040(%rsp),%rsi
  4028b8:	00 
  4028b9:	48 8d 7c 24 30       	lea    0x30(%rsp),%rdi
  4028be:	e8 34 f9 ff ff       	callq  4021f7 <rio_readlineb>
  4028c3:	48 85 c0             	test   %rax,%rax
  4028c6:	7f 79                	jg     402941 <submitr+0x593>
  4028c8:	48 b8 45 72 72 6f 72 	movabs $0x43203a726f727245,%rax
  4028cf:	3a 20 43 
  4028d2:	48 89 03             	mov    %rax,(%rbx)
  4028d5:	48 b8 6c 69 65 6e 74 	movabs $0x6e7520746e65696c,%rax
  4028dc:	20 75 6e 
  4028df:	48 89 43 08          	mov    %rax,0x8(%rbx)
  4028e3:	48 b8 61 62 6c 65 20 	movabs $0x206f7420656c6261,%rax
  4028ea:	74 6f 20 
  4028ed:	48 89 43 10          	mov    %rax,0x10(%rbx)
  4028f1:	48 b8 72 65 61 64 20 	movabs $0x6165682064616572,%rax
  4028f8:	68 65 61 
  4028fb:	48 89 43 18          	mov    %rax,0x18(%rbx)
  4028ff:	48 b8 64 65 72 73 20 	movabs $0x6f72662073726564,%rax
  402906:	66 72 6f 
  402909:	48 89 43 20          	mov    %rax,0x20(%rbx)
  40290d:	48 b8 6d 20 74 68 65 	movabs $0x657220656874206d,%rax
  402914:	20 72 65 
  402917:	48 89 43 28          	mov    %rax,0x28(%rbx)
  40291b:	48 b8 73 75 6c 74 20 	movabs $0x72657320746c7573,%rax
  402922:	73 65 72 
  402925:	48 89 43 30          	mov    %rax,0x30(%rbx)
  402929:	c7 43 38 76 65 72 00 	movl   $0x726576,0x38(%rbx)
  402930:	89 ef                	mov    %ebp,%edi
  402932:	e8 a9 e3 ff ff       	callq  400ce0 <close@plt>
  402937:	b8 ff ff ff ff       	mov    $0xffffffff,%eax
  40293c:	e9 b3 01 00 00       	jmpq   402af4 <submitr+0x746>
  402941:	0f b6 94 24 40 20 00 	movzbl 0x2040(%rsp),%edx
  402948:	00 
  402949:	b8 0d 00 00 00       	mov    $0xd,%eax
  40294e:	29 d0                	sub    %edx,%eax
  402950:	75 1b                	jne    40296d <submitr+0x5bf>
  402952:	0f b6 94 24 41 20 00 	movzbl 0x2041(%rsp),%edx
  402959:	00 
  40295a:	b8 0a 00 00 00       	mov    $0xa,%eax
  40295f:	29 d0                	sub    %edx,%eax
  402961:	75 0a                	jne    40296d <submitr+0x5bf>
  402963:	0f b6 84 24 42 20 00 	movzbl 0x2042(%rsp),%eax
  40296a:	00 
  40296b:	f7 d8                	neg    %eax
  40296d:	85 c0                	test   %eax,%eax
  40296f:	0f 85 37 ff ff ff    	jne    4028ac <submitr+0x4fe>
  402975:	ba 00 20 00 00       	mov    $0x2000,%edx
  40297a:	48 8d b4 24 40 20 00 	lea    0x2040(%rsp),%rsi
  402981:	00 
  402982:	48 8d 7c 24 30       	lea    0x30(%rsp),%rdi
  402987:	e8 6b f8 ff ff       	callq  4021f7 <rio_readlineb>
  40298c:	48 85 c0             	test   %rax,%rax
  40298f:	0f 8f 83 00 00 00    	jg     402a18 <submitr+0x66a>
  402995:	48 b8 45 72 72 6f 72 	movabs $0x43203a726f727245,%rax
  40299c:	3a 20 43 
  40299f:	48 89 03             	mov    %rax,(%rbx)
  4029a2:	48 b8 6c 69 65 6e 74 	movabs $0x6e7520746e65696c,%rax
  4029a9:	20 75 6e 
  4029ac:	48 89 43 08          	mov    %rax,0x8(%rbx)
  4029b0:	48 b8 61 62 6c 65 20 	movabs $0x206f7420656c6261,%rax
  4029b7:	74 6f 20 
  4029ba:	48 89 43 10          	mov    %rax,0x10(%rbx)
  4029be:	48 b8 72 65 61 64 20 	movabs $0x6174732064616572,%rax
  4029c5:	73 74 61 
  4029c8:	48 89 43 18          	mov    %rax,0x18(%rbx)
  4029cc:	48 b8 74 75 73 20 6d 	movabs $0x7373656d20737574,%rax
  4029d3:	65 73 73 
  4029d6:	48 89 43 20          	mov    %rax,0x20(%rbx)
  4029da:	48 b8 61 67 65 20 66 	movabs $0x6d6f726620656761,%rax
  4029e1:	72 6f 6d 
  4029e4:	48 89 43 28          	mov    %rax,0x28(%rbx)
  4029e8:	48 b8 20 72 65 73 75 	movabs $0x20746c7573657220,%rax
  4029ef:	6c 74 20 
  4029f2:	48 89 43 30          	mov    %rax,0x30(%rbx)
  4029f6:	c7 43 38 73 65 72 76 	movl   $0x76726573,0x38(%rbx)
  4029fd:	66 c7 43 3c 65 72    	movw   $0x7265,0x3c(%rbx)
  402a03:	c6 43 3e 00          	movb   $0x0,0x3e(%rbx)
  402a07:	89 ef                	mov    %ebp,%edi
  402a09:	e8 d2 e2 ff ff       	callq  400ce0 <close@plt>
  402a0e:	b8 ff ff ff ff       	mov    $0xffffffff,%eax
  402a13:	e9 dc 00 00 00       	jmpq   402af4 <submitr+0x746>
  402a18:	44 8b 44 24 1c       	mov    0x1c(%rsp),%r8d
  402a1d:	41 81 f8 c8 00 00 00 	cmp    $0xc8,%r8d
  402a24:	74 37                	je     402a5d <submitr+0x6af>
  402a26:	4c 8d 8c 24 40 80 00 	lea    0x8040(%rsp),%r9
  402a2d:	00 
  402a2e:	b9 58 36 40 00       	mov    $0x403658,%ecx
  402a33:	48 c7 c2 ff ff ff ff 	mov    $0xffffffffffffffff,%rdx
  402a3a:	be 01 00 00 00       	mov    $0x1,%esi
  402a3f:	48 89 df             	mov    %rbx,%rdi
  402a42:	b8 00 00 00 00       	mov    $0x0,%eax
  402a47:	e8 e4 e3 ff ff       	callq  400e30 <__sprintf_chk@plt>
  402a4c:	89 ef                	mov    %ebp,%edi
  402a4e:	e8 8d e2 ff ff       	callq  400ce0 <close@plt>
  402a53:	b8 ff ff ff ff       	mov    $0xffffffff,%eax
  402a58:	e9 97 00 00 00       	jmpq   402af4 <submitr+0x746>
  402a5d:	48 8d b4 24 40 20 00 	lea    0x2040(%rsp),%rsi
  402a64:	00 
  402a65:	48 89 df             	mov    %rbx,%rdi
  402a68:	e8 03 e2 ff ff       	callq  400c70 <strcpy@plt>
  402a6d:	89 ef                	mov    %ebp,%edi
  402a6f:	e8 6c e2 ff ff       	callq  400ce0 <close@plt>
  402a74:	0f b6 03             	movzbl (%rbx),%eax
  402a77:	ba 4f 00 00 00       	mov    $0x4f,%edx
  402a7c:	29 c2                	sub    %eax,%edx
  402a7e:	75 22                	jne    402aa2 <submitr+0x6f4>
  402a80:	0f b6 4b 01          	movzbl 0x1(%rbx),%ecx
  402a84:	b8 4b 00 00 00       	mov    $0x4b,%eax
  402a89:	29 c8                	sub    %ecx,%eax
  402a8b:	75 17                	jne    402aa4 <submitr+0x6f6>
  402a8d:	0f b6 4b 02          	movzbl 0x2(%rbx),%ecx
  402a91:	b8 0a 00 00 00       	mov    $0xa,%eax
  402a96:	29 c8                	sub    %ecx,%eax
  402a98:	75 0a                	jne    402aa4 <submitr+0x6f6>
  402a9a:	0f b6 43 03          	movzbl 0x3(%rbx),%eax
  402a9e:	f7 d8                	neg    %eax
  402aa0:	eb 02                	jmp    402aa4 <submitr+0x6f6>
  402aa2:	89 d0                	mov    %edx,%eax
  402aa4:	85 c0                	test   %eax,%eax
  402aa6:	74 40                	je     402ae8 <submitr+0x73a>
  402aa8:	bf a0 36 40 00       	mov    $0x4036a0,%edi
  402aad:	b9 05 00 00 00       	mov    $0x5,%ecx
  402ab2:	48 89 de             	mov    %rbx,%rsi
  402ab5:	f3 a6                	repz cmpsb %es:(%rdi),%ds:(%rsi)
  402ab7:	0f 97 c0             	seta   %al
  402aba:	0f 92 c1             	setb   %cl
  402abd:	29 c8                	sub    %ecx,%eax
  402abf:	0f be c0             	movsbl %al,%eax
  402ac2:	85 c0                	test   %eax,%eax
  402ac4:	74 2e                	je     402af4 <submitr+0x746>
  402ac6:	85 d2                	test   %edx,%edx
  402ac8:	75 13                	jne    402add <submitr+0x72f>
  402aca:	0f b6 43 01          	movzbl 0x1(%rbx),%eax
  402ace:	ba 4b 00 00 00       	mov    $0x4b,%edx
  402ad3:	29 c2                	sub    %eax,%edx
  402ad5:	75 06                	jne    402add <submitr+0x72f>
  402ad7:	0f b6 53 02          	movzbl 0x2(%rbx),%edx
  402adb:	f7 da                	neg    %edx
  402add:	85 d2                	test   %edx,%edx
  402adf:	75 0e                	jne    402aef <submitr+0x741>
  402ae1:	b8 00 00 00 00       	mov    $0x0,%eax
  402ae6:	eb 0c                	jmp    402af4 <submitr+0x746>
  402ae8:	b8 00 00 00 00       	mov    $0x0,%eax
  402aed:	eb 05                	jmp    402af4 <submitr+0x746>
  402aef:	b8 ff ff ff ff       	mov    $0xffffffff,%eax
  402af4:	48 8b 9c 24 48 a0 00 	mov    0xa048(%rsp),%rbx
  402afb:	00 
  402afc:	64 48 33 1c 25 28 00 	xor    %fs:0x28,%rbx
  402b03:	00 00 
  402b05:	74 05                	je     402b0c <submitr+0x75e>
  402b07:	e8 94 e1 ff ff       	callq  400ca0 <__stack_chk_fail@plt>
  402b0c:	48 81 c4 58 a0 00 00 	add    $0xa058,%rsp
  402b13:	5b                   	pop    %rbx
  402b14:	5d                   	pop    %rbp
  402b15:	41 5c                	pop    %r12
  402b17:	41 5d                	pop    %r13
  402b19:	41 5e                	pop    %r14
  402b1b:	41 5f                	pop    %r15
  402b1d:	c3                   	retq   

0000000000402b1e <init_timeout>:
  402b1e:	85 ff                	test   %edi,%edi
  402b20:	74 23                	je     402b45 <init_timeout+0x27>
  402b22:	53                   	push   %rbx
  402b23:	89 fb                	mov    %edi,%ebx
  402b25:	85 ff                	test   %edi,%edi
  402b27:	79 05                	jns    402b2e <init_timeout+0x10>
  402b29:	bb 00 00 00 00       	mov    $0x0,%ebx
  402b2e:	be e2 20 40 00       	mov    $0x4020e2,%esi
  402b33:	bf 0e 00 00 00       	mov    $0xe,%edi
  402b38:	e8 d3 e1 ff ff       	callq  400d10 <signal@plt>
  402b3d:	89 df                	mov    %ebx,%edi
  402b3f:	e8 8c e1 ff ff       	callq  400cd0 <alarm@plt>
  402b44:	5b                   	pop    %rbx
  402b45:	f3 c3                	repz retq 

0000000000402b47 <init_driver>:
  402b47:	55                   	push   %rbp
  402b48:	53                   	push   %rbx
  402b49:	48 83 ec 28          	sub    $0x28,%rsp
  402b4d:	48 89 fd             	mov    %rdi,%rbp
  402b50:	64 48 8b 04 25 28 00 	mov    %fs:0x28,%rax
  402b57:	00 00 
  402b59:	48 89 44 24 18       	mov    %rax,0x18(%rsp)
  402b5e:	31 c0                	xor    %eax,%eax
  402b60:	be 01 00 00 00       	mov    $0x1,%esi
  402b65:	bf 0d 00 00 00       	mov    $0xd,%edi
  402b6a:	e8 a1 e1 ff ff       	callq  400d10 <signal@plt>
  402b6f:	be 01 00 00 00       	mov    $0x1,%esi
  402b74:	bf 1d 00 00 00       	mov    $0x1d,%edi
  402b79:	e8 92 e1 ff ff       	callq  400d10 <signal@plt>
  402b7e:	be 01 00 00 00       	mov    $0x1,%esi
  402b83:	bf 1d 00 00 00       	mov    $0x1d,%edi
  402b88:	e8 83 e1 ff ff       	callq  400d10 <signal@plt>
  402b8d:	ba 00 00 00 00       	mov    $0x0,%edx
  402b92:	be 01 00 00 00       	mov    $0x1,%esi
  402b97:	bf 02 00 00 00       	mov    $0x2,%edi
  402b9c:	e8 9f e2 ff ff       	callq  400e40 <socket@plt>
  402ba1:	85 c0                	test   %eax,%eax
  402ba3:	79 4f                	jns    402bf4 <init_driver+0xad>
  402ba5:	48 b8 45 72 72 6f 72 	movabs $0x43203a726f727245,%rax
  402bac:	3a 20 43 
  402baf:	48 89 45 00          	mov    %rax,0x0(%rbp)
  402bb3:	48 b8 6c 69 65 6e 74 	movabs $0x6e7520746e65696c,%rax
  402bba:	20 75 6e 
  402bbd:	48 89 45 08          	mov    %rax,0x8(%rbp)
  402bc1:	48 b8 61 62 6c 65 20 	movabs $0x206f7420656c6261,%rax
  402bc8:	74 6f 20 
  402bcb:	48 89 45 10          	mov    %rax,0x10(%rbp)
  402bcf:	48 b8 63 72 65 61 74 	movabs $0x7320657461657263,%rax
  402bd6:	65 20 73 
  402bd9:	48 89 45 18          	mov    %rax,0x18(%rbp)
  402bdd:	c7 45 20 6f 63 6b 65 	movl   $0x656b636f,0x20(%rbp)
  402be4:	66 c7 45 24 74 00    	movw   $0x74,0x24(%rbp)
  402bea:	b8 ff ff ff ff       	mov    $0xffffffff,%eax
  402bef:	e9 2a 01 00 00       	jmpq   402d1e <init_driver+0x1d7>
  402bf4:	89 c3                	mov    %eax,%ebx
  402bf6:	bf a5 36 40 00       	mov    $0x4036a5,%edi
  402bfb:	e8 20 e1 ff ff       	callq  400d20 <gethostbyname@plt>
  402c00:	48 85 c0             	test   %rax,%rax
  402c03:	75 68                	jne    402c6d <init_driver+0x126>
  402c05:	48 b8 45 72 72 6f 72 	movabs $0x44203a726f727245,%rax
  402c0c:	3a 20 44 
  402c0f:	48 89 45 00          	mov    %rax,0x0(%rbp)
  402c13:	48 b8 4e 53 20 69 73 	movabs $0x6e7520736920534e,%rax
  402c1a:	20 75 6e 
  402c1d:	48 89 45 08          	mov    %rax,0x8(%rbp)
  402c21:	48 b8 61 62 6c 65 20 	movabs $0x206f7420656c6261,%rax
  402c28:	74 6f 20 
  402c2b:	48 89 45 10          	mov    %rax,0x10(%rbp)
  402c2f:	48 b8 72 65 73 6f 6c 	movabs $0x2065766c6f736572,%rax
  402c36:	76 65 20 
  402c39:	48 89 45 18          	mov    %rax,0x18(%rbp)
  402c3d:	48 b8 73 65 72 76 65 	movabs $0x6120726576726573,%rax
  402c44:	72 20 61 
  402c47:	48 89 45 20          	mov    %rax,0x20(%rbp)
  402c4b:	c7 45 28 64 64 72 65 	movl   $0x65726464,0x28(%rbp)
  402c52:	66 c7 45 2c 73 73    	movw   $0x7373,0x2c(%rbp)
  402c58:	c6 45 2e 00          	movb   $0x0,0x2e(%rbp)
  402c5c:	89 df                	mov    %ebx,%edi
  402c5e:	e8 7d e0 ff ff       	callq  400ce0 <close@plt>
  402c63:	b8 ff ff ff ff       	mov    $0xffffffff,%eax
  402c68:	e9 b1 00 00 00       	jmpq   402d1e <init_driver+0x1d7>
  402c6d:	48 c7 04 24 00 00 00 	movq   $0x0,(%rsp)
  402c74:	00 
  402c75:	48 c7 44 24 08 00 00 	movq   $0x0,0x8(%rsp)
  402c7c:	00 00 
  402c7e:	66 c7 04 24 02 00    	movw   $0x2,(%rsp)
  402c84:	48 63 50 14          	movslq 0x14(%rax),%rdx
  402c88:	48 8b 40 18          	mov    0x18(%rax),%rax
  402c8c:	48 8b 30             	mov    (%rax),%rsi
  402c8f:	48 8d 7c 24 04       	lea    0x4(%rsp),%rdi
  402c94:	b9 0c 00 00 00       	mov    $0xc,%ecx
  402c99:	e8 92 e0 ff ff       	callq  400d30 <__memmove_chk@plt>
  402c9e:	66 c7 44 24 02 3c 9a 	movw   $0x9a3c,0x2(%rsp)
  402ca5:	ba 10 00 00 00       	mov    $0x10,%edx
  402caa:	48 89 e6             	mov    %rsp,%rsi
  402cad:	89 df                	mov    %ebx,%edi
  402caf:	e8 5c e1 ff ff       	callq  400e10 <connect@plt>
  402cb4:	85 c0                	test   %eax,%eax
  402cb6:	79 50                	jns    402d08 <init_driver+0x1c1>
  402cb8:	48 b8 45 72 72 6f 72 	movabs $0x55203a726f727245,%rax
  402cbf:	3a 20 55 
  402cc2:	48 89 45 00          	mov    %rax,0x0(%rbp)
  402cc6:	48 b8 6e 61 62 6c 65 	movabs $0x6f7420656c62616e,%rax
  402ccd:	20 74 6f 
  402cd0:	48 89 45 08          	mov    %rax,0x8(%rbp)
  402cd4:	48 b8 20 63 6f 6e 6e 	movabs $0x7463656e6e6f6320,%rax
  402cdb:	65 63 74 
  402cde:	48 89 45 10          	mov    %rax,0x10(%rbp)
  402ce2:	48 b8 20 74 6f 20 73 	movabs $0x76726573206f7420,%rax
  402ce9:	65 72 76 
  402cec:	48 89 45 18          	mov    %rax,0x18(%rbp)
  402cf0:	66 c7 45 20 65 72    	movw   $0x7265,0x20(%rbp)
  402cf6:	c6 45 22 00          	movb   $0x0,0x22(%rbp)
  402cfa:	89 df                	mov    %ebx,%edi
  402cfc:	e8 df df ff ff       	callq  400ce0 <close@plt>
  402d01:	b8 ff ff ff ff       	mov    $0xffffffff,%eax
  402d06:	eb 16                	jmp    402d1e <init_driver+0x1d7>
  402d08:	89 df                	mov    %ebx,%edi
  402d0a:	e8 d1 df ff ff       	callq  400ce0 <close@plt>
  402d0f:	66 c7 45 00 4f 4b    	movw   $0x4b4f,0x0(%rbp)
  402d15:	c6 45 02 00          	movb   $0x0,0x2(%rbp)
  402d19:	b8 00 00 00 00       	mov    $0x0,%eax
  402d1e:	48 8b 4c 24 18       	mov    0x18(%rsp),%rcx
  402d23:	64 48 33 0c 25 28 00 	xor    %fs:0x28,%rcx
  402d2a:	00 00 
  402d2c:	74 05                	je     402d33 <init_driver+0x1ec>
  402d2e:	e8 6d df ff ff       	callq  400ca0 <__stack_chk_fail@plt>
  402d33:	48 83 c4 28          	add    $0x28,%rsp
  402d37:	5b                   	pop    %rbx
  402d38:	5d                   	pop    %rbp
  402d39:	c3                   	retq   

0000000000402d3a <driver_post>:
  402d3a:	53                   	push   %rbx
  402d3b:	4c 89 cb             	mov    %r9,%rbx
  402d3e:	45 85 c0             	test   %r8d,%r8d
  402d41:	74 27                	je     402d6a <driver_post+0x30>
  402d43:	48 89 ca             	mov    %rcx,%rdx
  402d46:	be b9 36 40 00       	mov    $0x4036b9,%esi
  402d4b:	bf 01 00 00 00       	mov    $0x1,%edi
  402d50:	b8 00 00 00 00       	mov    $0x0,%eax
  402d55:	e8 56 e0 ff ff       	callq  400db0 <__printf_chk@plt>
  402d5a:	66 c7 03 4f 4b       	movw   $0x4b4f,(%rbx)
  402d5f:	c6 43 02 00          	movb   $0x0,0x2(%rbx)
  402d63:	b8 00 00 00 00       	mov    $0x0,%eax
  402d68:	eb 3f                	jmp    402da9 <driver_post+0x6f>
  402d6a:	48 85 ff             	test   %rdi,%rdi
  402d6d:	74 2c                	je     402d9b <driver_post+0x61>
  402d6f:	80 3f 00             	cmpb   $0x0,(%rdi)
  402d72:	74 27                	je     402d9b <driver_post+0x61>
  402d74:	48 83 ec 08          	sub    $0x8,%rsp
  402d78:	41 51                	push   %r9
  402d7a:	49 89 c9             	mov    %rcx,%r9
  402d7d:	49 89 d0             	mov    %rdx,%r8
  402d80:	48 89 f9             	mov    %rdi,%rcx
  402d83:	48 89 f2             	mov    %rsi,%rdx
  402d86:	be 9a 3c 00 00       	mov    $0x3c9a,%esi
  402d8b:	bf a5 36 40 00       	mov    $0x4036a5,%edi
  402d90:	e8 19 f6 ff ff       	callq  4023ae <submitr>
  402d95:	48 83 c4 10          	add    $0x10,%rsp
  402d99:	eb 0e                	jmp    402da9 <driver_post+0x6f>
  402d9b:	66 c7 03 4f 4b       	movw   $0x4b4f,(%rbx)
  402da0:	c6 43 02 00          	movb   $0x0,0x2(%rbx)
  402da4:	b8 00 00 00 00       	mov    $0x0,%eax
  402da9:	5b                   	pop    %rbx
  402daa:	c3                   	retq   

0000000000402dab <check>:
  402dab:	89 f8                	mov    %edi,%eax
  402dad:	c1 e8 1c             	shr    $0x1c,%eax
  402db0:	85 c0                	test   %eax,%eax
  402db2:	74 1d                	je     402dd1 <check+0x26>
  402db4:	b9 00 00 00 00       	mov    $0x0,%ecx
  402db9:	eb 0b                	jmp    402dc6 <check+0x1b>
  402dbb:	89 f8                	mov    %edi,%eax
  402dbd:	d3 e8                	shr    %cl,%eax
  402dbf:	3c 0a                	cmp    $0xa,%al
  402dc1:	74 14                	je     402dd7 <check+0x2c>
  402dc3:	83 c1 08             	add    $0x8,%ecx
  402dc6:	83 f9 1f             	cmp    $0x1f,%ecx
  402dc9:	7e f0                	jle    402dbb <check+0x10>
  402dcb:	b8 01 00 00 00       	mov    $0x1,%eax
  402dd0:	c3                   	retq   
  402dd1:	b8 00 00 00 00       	mov    $0x0,%eax
  402dd6:	c3                   	retq   
  402dd7:	b8 00 00 00 00       	mov    $0x0,%eax
  402ddc:	c3                   	retq   

0000000000402ddd <gencookie>:
  402ddd:	53                   	push   %rbx
  402dde:	83 c7 01             	add    $0x1,%edi
  402de1:	e8 6a de ff ff       	callq  400c50 <srandom@plt>
  402de6:	e8 85 df ff ff       	callq  400d70 <random@plt>
  402deb:	89 c3                	mov    %eax,%ebx
  402ded:	89 c7                	mov    %eax,%edi
  402def:	e8 b7 ff ff ff       	callq  402dab <check>
  402df4:	85 c0                	test   %eax,%eax
  402df6:	74 ee                	je     402de6 <gencookie+0x9>
  402df8:	89 d8                	mov    %ebx,%eax
  402dfa:	5b                   	pop    %rbx
  402dfb:	c3                   	retq   
  402dfc:	0f 1f 40 00          	nopl   0x0(%rax)

0000000000402e00 <__libc_csu_init>:
  402e00:	41 57                	push   %r15
  402e02:	41 56                	push   %r14
  402e04:	41 89 ff             	mov    %edi,%r15d
  402e07:	41 55                	push   %r13
  402e09:	41 54                	push   %r12
  402e0b:	4c 8d 25 fe 0f 20 00 	lea    0x200ffe(%rip),%r12        # 603e10 <__frame_dummy_init_array_entry>
  402e12:	55                   	push   %rbp
  402e13:	48 8d 2d fe 0f 20 00 	lea    0x200ffe(%rip),%rbp        # 603e18 <__init_array_end>
  402e1a:	53                   	push   %rbx
  402e1b:	49 89 f6             	mov    %rsi,%r14
  402e1e:	49 89 d5             	mov    %rdx,%r13
  402e21:	4c 29 e5             	sub    %r12,%rbp
  402e24:	48 83 ec 08          	sub    $0x8,%rsp
  402e28:	48 c1 fd 03          	sar    $0x3,%rbp
  402e2c:	e8 d7 dd ff ff       	callq  400c08 <_init>
  402e31:	48 85 ed             	test   %rbp,%rbp
  402e34:	74 20                	je     402e56 <__libc_csu_init+0x56>
  402e36:	31 db                	xor    %ebx,%ebx
  402e38:	0f 1f 84 00 00 00 00 	nopl   0x0(%rax,%rax,1)
  402e3f:	00 
  402e40:	4c 89 ea             	mov    %r13,%rdx
  402e43:	4c 89 f6             	mov    %r14,%rsi
  402e46:	44 89 ff             	mov    %r15d,%edi
  402e49:	41 ff 14 dc          	callq  *(%r12,%rbx,8)
  402e4d:	48 83 c3 01          	add    $0x1,%rbx
  402e51:	48 39 eb             	cmp    %rbp,%rbx
  402e54:	75 ea                	jne    402e40 <__libc_csu_init+0x40>
  402e56:	48 83 c4 08          	add    $0x8,%rsp
  402e5a:	5b                   	pop    %rbx
  402e5b:	5d                   	pop    %rbp
  402e5c:	41 5c                	pop    %r12
  402e5e:	41 5d                	pop    %r13
  402e60:	41 5e                	pop    %r14
  402e62:	41 5f                	pop    %r15
  402e64:	c3                   	retq   
  402e65:	90                   	nop
  402e66:	66 2e 0f 1f 84 00 00 	nopw   %cs:0x0(%rax,%rax,1)
  402e6d:	00 00 00 

0000000000402e70 <__libc_csu_fini>:
  402e70:	f3 c3                	repz retq 

Disassembly of section .fini:

0000000000402e74 <_fini>:
  402e74:	48 83 ec 08          	sub    $0x8,%rsp
  402e78:	48 83 c4 08          	add    $0x8,%rsp
  402e7c:	c3                   	retq   
