
rtarget:     file format elf64-x86-64


Disassembly of section .init:

0000000000400c08 <_init>:
  400c08:	48 83 ec 08          	sub    $0x8,%rsp
  400c0c:	48 8b 05 e5 43 20 00 	mov    0x2043e5(%rip),%rax        # 604ff8 <__gmon_start__>
  400c13:	48 85 c0             	test   %rax,%rax
  400c16:	74 05                	je     400c1d <_init+0x15>
  400c18:	e8 33 02 00 00       	callq  400e50 <__gmon_start__@plt>
  400c1d:	48 83 c4 08          	add    $0x8,%rsp
  400c21:	c3                   	retq   

Disassembly of section .plt:

0000000000400c30 <.plt>:
  400c30:	ff 35 d2 43 20 00    	pushq  0x2043d2(%rip)        # 605008 <_GLOBAL_OFFSET_TABLE_+0x8>
  400c36:	ff 25 d4 43 20 00    	jmpq   *0x2043d4(%rip)        # 605010 <_GLOBAL_OFFSET_TABLE_+0x10>
  400c3c:	0f 1f 40 00          	nopl   0x0(%rax)

0000000000400c40 <__errno_location@plt>:
  400c40:	ff 25 d2 43 20 00    	jmpq   *0x2043d2(%rip)        # 605018 <__errno_location@GLIBC_2.2.5>
  400c46:	68 00 00 00 00       	pushq  $0x0
  400c4b:	e9 e0 ff ff ff       	jmpq   400c30 <.plt>

0000000000400c50 <srandom@plt>:
  400c50:	ff 25 ca 43 20 00    	jmpq   *0x2043ca(%rip)        # 605020 <srandom@GLIBC_2.2.5>
  400c56:	68 01 00 00 00       	pushq  $0x1
  400c5b:	e9 d0 ff ff ff       	jmpq   400c30 <.plt>

0000000000400c60 <strncmp@plt>:
  400c60:	ff 25 c2 43 20 00    	jmpq   *0x2043c2(%rip)        # 605028 <strncmp@GLIBC_2.2.5>
  400c66:	68 02 00 00 00       	pushq  $0x2
  400c6b:	e9 c0 ff ff ff       	jmpq   400c30 <.plt>

0000000000400c70 <strcpy@plt>:
  400c70:	ff 25 ba 43 20 00    	jmpq   *0x2043ba(%rip)        # 605030 <strcpy@GLIBC_2.2.5>
  400c76:	68 03 00 00 00       	pushq  $0x3
  400c7b:	e9 b0 ff ff ff       	jmpq   400c30 <.plt>

0000000000400c80 <puts@plt>:
  400c80:	ff 25 b2 43 20 00    	jmpq   *0x2043b2(%rip)        # 605038 <puts@GLIBC_2.2.5>
  400c86:	68 04 00 00 00       	pushq  $0x4
  400c8b:	e9 a0 ff ff ff       	jmpq   400c30 <.plt>

0000000000400c90 <write@plt>:
  400c90:	ff 25 aa 43 20 00    	jmpq   *0x2043aa(%rip)        # 605040 <write@GLIBC_2.2.5>
  400c96:	68 05 00 00 00       	pushq  $0x5
  400c9b:	e9 90 ff ff ff       	jmpq   400c30 <.plt>

0000000000400ca0 <__stack_chk_fail@plt>:
  400ca0:	ff 25 a2 43 20 00    	jmpq   *0x2043a2(%rip)        # 605048 <__stack_chk_fail@GLIBC_2.4>
  400ca6:	68 06 00 00 00       	pushq  $0x6
  400cab:	e9 80 ff ff ff       	jmpq   400c30 <.plt>

0000000000400cb0 <mmap@plt>:
  400cb0:	ff 25 9a 43 20 00    	jmpq   *0x20439a(%rip)        # 605050 <mmap@GLIBC_2.2.5>
  400cb6:	68 07 00 00 00       	pushq  $0x7
  400cbb:	e9 70 ff ff ff       	jmpq   400c30 <.plt>

0000000000400cc0 <memset@plt>:
  400cc0:	ff 25 92 43 20 00    	jmpq   *0x204392(%rip)        # 605058 <memset@GLIBC_2.2.5>
  400cc6:	68 08 00 00 00       	pushq  $0x8
  400ccb:	e9 60 ff ff ff       	jmpq   400c30 <.plt>

0000000000400cd0 <alarm@plt>:
  400cd0:	ff 25 8a 43 20 00    	jmpq   *0x20438a(%rip)        # 605060 <alarm@GLIBC_2.2.5>
  400cd6:	68 09 00 00 00       	pushq  $0x9
  400cdb:	e9 50 ff ff ff       	jmpq   400c30 <.plt>

0000000000400ce0 <close@plt>:
  400ce0:	ff 25 82 43 20 00    	jmpq   *0x204382(%rip)        # 605068 <close@GLIBC_2.2.5>
  400ce6:	68 0a 00 00 00       	pushq  $0xa
  400ceb:	e9 40 ff ff ff       	jmpq   400c30 <.plt>

0000000000400cf0 <read@plt>:
  400cf0:	ff 25 7a 43 20 00    	jmpq   *0x20437a(%rip)        # 605070 <read@GLIBC_2.2.5>
  400cf6:	68 0b 00 00 00       	pushq  $0xb
  400cfb:	e9 30 ff ff ff       	jmpq   400c30 <.plt>

0000000000400d00 <__libc_start_main@plt>:
  400d00:	ff 25 72 43 20 00    	jmpq   *0x204372(%rip)        # 605078 <__libc_start_main@GLIBC_2.2.5>
  400d06:	68 0c 00 00 00       	pushq  $0xc
  400d0b:	e9 20 ff ff ff       	jmpq   400c30 <.plt>

0000000000400d10 <signal@plt>:
  400d10:	ff 25 6a 43 20 00    	jmpq   *0x20436a(%rip)        # 605080 <signal@GLIBC_2.2.5>
  400d16:	68 0d 00 00 00       	pushq  $0xd
  400d1b:	e9 10 ff ff ff       	jmpq   400c30 <.plt>

0000000000400d20 <gethostbyname@plt>:
  400d20:	ff 25 62 43 20 00    	jmpq   *0x204362(%rip)        # 605088 <gethostbyname@GLIBC_2.2.5>
  400d26:	68 0e 00 00 00       	pushq  $0xe
  400d2b:	e9 00 ff ff ff       	jmpq   400c30 <.plt>

0000000000400d30 <__memmove_chk@plt>:
  400d30:	ff 25 5a 43 20 00    	jmpq   *0x20435a(%rip)        # 605090 <__memmove_chk@GLIBC_2.3.4>
  400d36:	68 0f 00 00 00       	pushq  $0xf
  400d3b:	e9 f0 fe ff ff       	jmpq   400c30 <.plt>

0000000000400d40 <strtol@plt>:
  400d40:	ff 25 52 43 20 00    	jmpq   *0x204352(%rip)        # 605098 <strtol@GLIBC_2.2.5>
  400d46:	68 10 00 00 00       	pushq  $0x10
  400d4b:	e9 e0 fe ff ff       	jmpq   400c30 <.plt>

0000000000400d50 <memcpy@plt>:
  400d50:	ff 25 4a 43 20 00    	jmpq   *0x20434a(%rip)        # 6050a0 <memcpy@GLIBC_2.14>
  400d56:	68 11 00 00 00       	pushq  $0x11
  400d5b:	e9 d0 fe ff ff       	jmpq   400c30 <.plt>

0000000000400d60 <time@plt>:
  400d60:	ff 25 42 43 20 00    	jmpq   *0x204342(%rip)        # 6050a8 <time@GLIBC_2.2.5>
  400d66:	68 12 00 00 00       	pushq  $0x12
  400d6b:	e9 c0 fe ff ff       	jmpq   400c30 <.plt>

0000000000400d70 <random@plt>:
  400d70:	ff 25 3a 43 20 00    	jmpq   *0x20433a(%rip)        # 6050b0 <random@GLIBC_2.2.5>
  400d76:	68 13 00 00 00       	pushq  $0x13
  400d7b:	e9 b0 fe ff ff       	jmpq   400c30 <.plt>

0000000000400d80 <_IO_getc@plt>:
  400d80:	ff 25 32 43 20 00    	jmpq   *0x204332(%rip)        # 6050b8 <_IO_getc@GLIBC_2.2.5>
  400d86:	68 14 00 00 00       	pushq  $0x14
  400d8b:	e9 a0 fe ff ff       	jmpq   400c30 <.plt>

0000000000400d90 <__isoc99_sscanf@plt>:
  400d90:	ff 25 2a 43 20 00    	jmpq   *0x20432a(%rip)        # 6050c0 <__isoc99_sscanf@GLIBC_2.7>
  400d96:	68 15 00 00 00       	pushq  $0x15
  400d9b:	e9 90 fe ff ff       	jmpq   400c30 <.plt>

0000000000400da0 <munmap@plt>:
  400da0:	ff 25 22 43 20 00    	jmpq   *0x204322(%rip)        # 6050c8 <munmap@GLIBC_2.2.5>
  400da6:	68 16 00 00 00       	pushq  $0x16
  400dab:	e9 80 fe ff ff       	jmpq   400c30 <.plt>

0000000000400db0 <__printf_chk@plt>:
  400db0:	ff 25 1a 43 20 00    	jmpq   *0x20431a(%rip)        # 6050d0 <__printf_chk@GLIBC_2.3.4>
  400db6:	68 17 00 00 00       	pushq  $0x17
  400dbb:	e9 70 fe ff ff       	jmpq   400c30 <.plt>

0000000000400dc0 <fopen@plt>:
  400dc0:	ff 25 12 43 20 00    	jmpq   *0x204312(%rip)        # 6050d8 <fopen@GLIBC_2.2.5>
  400dc6:	68 18 00 00 00       	pushq  $0x18
  400dcb:	e9 60 fe ff ff       	jmpq   400c30 <.plt>

0000000000400dd0 <getopt@plt>:
  400dd0:	ff 25 0a 43 20 00    	jmpq   *0x20430a(%rip)        # 6050e0 <getopt@GLIBC_2.2.5>
  400dd6:	68 19 00 00 00       	pushq  $0x19
  400ddb:	e9 50 fe ff ff       	jmpq   400c30 <.plt>

0000000000400de0 <strtoul@plt>:
  400de0:	ff 25 02 43 20 00    	jmpq   *0x204302(%rip)        # 6050e8 <strtoul@GLIBC_2.2.5>
  400de6:	68 1a 00 00 00       	pushq  $0x1a
  400deb:	e9 40 fe ff ff       	jmpq   400c30 <.plt>

0000000000400df0 <gethostname@plt>:
  400df0:	ff 25 fa 42 20 00    	jmpq   *0x2042fa(%rip)        # 6050f0 <gethostname@GLIBC_2.2.5>
  400df6:	68 1b 00 00 00       	pushq  $0x1b
  400dfb:	e9 30 fe ff ff       	jmpq   400c30 <.plt>

0000000000400e00 <exit@plt>:
  400e00:	ff 25 f2 42 20 00    	jmpq   *0x2042f2(%rip)        # 6050f8 <exit@GLIBC_2.2.5>
  400e06:	68 1c 00 00 00       	pushq  $0x1c
  400e0b:	e9 20 fe ff ff       	jmpq   400c30 <.plt>

0000000000400e10 <connect@plt>:
  400e10:	ff 25 ea 42 20 00    	jmpq   *0x2042ea(%rip)        # 605100 <connect@GLIBC_2.2.5>
  400e16:	68 1d 00 00 00       	pushq  $0x1d
  400e1b:	e9 10 fe ff ff       	jmpq   400c30 <.plt>

0000000000400e20 <__fprintf_chk@plt>:
  400e20:	ff 25 e2 42 20 00    	jmpq   *0x2042e2(%rip)        # 605108 <__fprintf_chk@GLIBC_2.3.4>
  400e26:	68 1e 00 00 00       	pushq  $0x1e
  400e2b:	e9 00 fe ff ff       	jmpq   400c30 <.plt>

0000000000400e30 <__sprintf_chk@plt>:
  400e30:	ff 25 da 42 20 00    	jmpq   *0x2042da(%rip)        # 605110 <__sprintf_chk@GLIBC_2.3.4>
  400e36:	68 1f 00 00 00       	pushq  $0x1f
  400e3b:	e9 f0 fd ff ff       	jmpq   400c30 <.plt>

0000000000400e40 <socket@plt>:
  400e40:	ff 25 d2 42 20 00    	jmpq   *0x2042d2(%rip)        # 605118 <socket@GLIBC_2.2.5>
  400e46:	68 20 00 00 00       	pushq  $0x20
  400e4b:	e9 e0 fd ff ff       	jmpq   400c30 <.plt>

Disassembly of section .plt.got:

0000000000400e50 <__gmon_start__@plt>:
  400e50:	ff 25 a2 41 20 00    	jmpq   *0x2041a2(%rip)        # 604ff8 <__gmon_start__>
  400e56:	66 90                	xchg   %ax,%ax

Disassembly of section .text:

0000000000400e60 <_start>:
  400e60:	31 ed                	xor    %ebp,%ebp
  400e62:	49 89 d1             	mov    %rdx,%r9
  400e65:	5e                   	pop    %rsi
  400e66:	48 89 e2             	mov    %rsp,%rdx
  400e69:	48 83 e4 f0          	and    $0xfffffffffffffff0,%rsp
  400e6d:	50                   	push   %rax
  400e6e:	54                   	push   %rsp
  400e6f:	49 c7 c0 90 2f 40 00 	mov    $0x402f90,%r8
  400e76:	48 c7 c1 20 2f 40 00 	mov    $0x402f20,%rcx
  400e7d:	48 c7 c7 0b 11 40 00 	mov    $0x40110b,%rdi
  400e84:	e8 77 fe ff ff       	callq  400d00 <__libc_start_main@plt>
  400e89:	f4                   	hlt    
  400e8a:	66 0f 1f 44 00 00    	nopw   0x0(%rax,%rax,1)

0000000000400e90 <deregister_tm_clones>:
  400e90:	b8 97 54 60 00       	mov    $0x605497,%eax
  400e95:	55                   	push   %rbp
  400e96:	48 2d 90 54 60 00    	sub    $0x605490,%rax
  400e9c:	48 83 f8 0e          	cmp    $0xe,%rax
  400ea0:	48 89 e5             	mov    %rsp,%rbp
  400ea3:	76 1b                	jbe    400ec0 <deregister_tm_clones+0x30>
  400ea5:	b8 00 00 00 00       	mov    $0x0,%eax
  400eaa:	48 85 c0             	test   %rax,%rax
  400ead:	74 11                	je     400ec0 <deregister_tm_clones+0x30>
  400eaf:	5d                   	pop    %rbp
  400eb0:	bf 90 54 60 00       	mov    $0x605490,%edi
  400eb5:	ff e0                	jmpq   *%rax
  400eb7:	66 0f 1f 84 00 00 00 	nopw   0x0(%rax,%rax,1)
  400ebe:	00 00 
  400ec0:	5d                   	pop    %rbp
  400ec1:	c3                   	retq   
  400ec2:	0f 1f 40 00          	nopl   0x0(%rax)
  400ec6:	66 2e 0f 1f 84 00 00 	nopw   %cs:0x0(%rax,%rax,1)
  400ecd:	00 00 00 

0000000000400ed0 <register_tm_clones>:
  400ed0:	be 90 54 60 00       	mov    $0x605490,%esi
  400ed5:	55                   	push   %rbp
  400ed6:	48 81 ee 90 54 60 00 	sub    $0x605490,%rsi
  400edd:	48 c1 fe 03          	sar    $0x3,%rsi
  400ee1:	48 89 e5             	mov    %rsp,%rbp
  400ee4:	48 89 f0             	mov    %rsi,%rax
  400ee7:	48 c1 e8 3f          	shr    $0x3f,%rax
  400eeb:	48 01 c6             	add    %rax,%rsi
  400eee:	48 d1 fe             	sar    %rsi
  400ef1:	74 15                	je     400f08 <register_tm_clones+0x38>
  400ef3:	b8 00 00 00 00       	mov    $0x0,%eax
  400ef8:	48 85 c0             	test   %rax,%rax
  400efb:	74 0b                	je     400f08 <register_tm_clones+0x38>
  400efd:	5d                   	pop    %rbp
  400efe:	bf 90 54 60 00       	mov    $0x605490,%edi
  400f03:	ff e0                	jmpq   *%rax
  400f05:	0f 1f 00             	nopl   (%rax)
  400f08:	5d                   	pop    %rbp
  400f09:	c3                   	retq   
  400f0a:	66 0f 1f 44 00 00    	nopw   0x0(%rax,%rax,1)

0000000000400f10 <__do_global_dtors_aux>:
  400f10:	80 3d b1 45 20 00 00 	cmpb   $0x0,0x2045b1(%rip)        # 6054c8 <completed.7585>
  400f17:	75 11                	jne    400f2a <__do_global_dtors_aux+0x1a>
  400f19:	55                   	push   %rbp
  400f1a:	48 89 e5             	mov    %rsp,%rbp
  400f1d:	e8 6e ff ff ff       	callq  400e90 <deregister_tm_clones>
  400f22:	5d                   	pop    %rbp
  400f23:	c6 05 9e 45 20 00 01 	movb   $0x1,0x20459e(%rip)        # 6054c8 <completed.7585>
  400f2a:	f3 c3                	repz retq 
  400f2c:	0f 1f 40 00          	nopl   0x0(%rax)

0000000000400f30 <frame_dummy>:
  400f30:	bf 20 4e 60 00       	mov    $0x604e20,%edi
  400f35:	48 83 3f 00          	cmpq   $0x0,(%rdi)
  400f39:	75 05                	jne    400f40 <frame_dummy+0x10>
  400f3b:	eb 93                	jmp    400ed0 <register_tm_clones>
  400f3d:	0f 1f 00             	nopl   (%rax)
  400f40:	b8 00 00 00 00       	mov    $0x0,%eax
  400f45:	48 85 c0             	test   %rax,%rax
  400f48:	74 f1                	je     400f3b <frame_dummy+0xb>
  400f4a:	55                   	push   %rbp
  400f4b:	48 89 e5             	mov    %rsp,%rbp
  400f4e:	ff d0                	callq  *%rax
  400f50:	5d                   	pop    %rbp
  400f51:	e9 7a ff ff ff       	jmpq   400ed0 <register_tm_clones>

0000000000400f56 <usage>:
  400f56:	48 83 ec 08          	sub    $0x8,%rsp
  400f5a:	48 89 fa             	mov    %rdi,%rdx
  400f5d:	83 3d a4 45 20 00 00 	cmpl   $0x0,0x2045a4(%rip)        # 605508 <is_checker>
  400f64:	74 3e                	je     400fa4 <usage+0x4e>
  400f66:	be a8 2f 40 00       	mov    $0x402fa8,%esi
  400f6b:	bf 01 00 00 00       	mov    $0x1,%edi
  400f70:	b8 00 00 00 00       	mov    $0x0,%eax
  400f75:	e8 36 fe ff ff       	callq  400db0 <__printf_chk@plt>
  400f7a:	bf e0 2f 40 00       	mov    $0x402fe0,%edi
  400f7f:	e8 fc fc ff ff       	callq  400c80 <puts@plt>
  400f84:	bf 18 31 40 00       	mov    $0x403118,%edi
  400f89:	e8 f2 fc ff ff       	callq  400c80 <puts@plt>
  400f8e:	bf 08 30 40 00       	mov    $0x403008,%edi
  400f93:	e8 e8 fc ff ff       	callq  400c80 <puts@plt>
  400f98:	bf 32 31 40 00       	mov    $0x403132,%edi
  400f9d:	e8 de fc ff ff       	callq  400c80 <puts@plt>
  400fa2:	eb 32                	jmp    400fd6 <usage+0x80>
  400fa4:	be 4e 31 40 00       	mov    $0x40314e,%esi
  400fa9:	bf 01 00 00 00       	mov    $0x1,%edi
  400fae:	b8 00 00 00 00       	mov    $0x0,%eax
  400fb3:	e8 f8 fd ff ff       	callq  400db0 <__printf_chk@plt>
  400fb8:	bf 30 30 40 00       	mov    $0x403030,%edi
  400fbd:	e8 be fc ff ff       	callq  400c80 <puts@plt>
  400fc2:	bf 58 30 40 00       	mov    $0x403058,%edi
  400fc7:	e8 b4 fc ff ff       	callq  400c80 <puts@plt>
  400fcc:	bf 6c 31 40 00       	mov    $0x40316c,%edi
  400fd1:	e8 aa fc ff ff       	callq  400c80 <puts@plt>
  400fd6:	bf 00 00 00 00       	mov    $0x0,%edi
  400fdb:	e8 20 fe ff ff       	callq  400e00 <exit@plt>

0000000000400fe0 <initialize_target>:
  400fe0:	55                   	push   %rbp
  400fe1:	53                   	push   %rbx
  400fe2:	48 81 ec 18 21 00 00 	sub    $0x2118,%rsp
  400fe9:	89 f5                	mov    %esi,%ebp
  400feb:	64 48 8b 04 25 28 00 	mov    %fs:0x28,%rax
  400ff2:	00 00 
  400ff4:	48 89 84 24 08 21 00 	mov    %rax,0x2108(%rsp)
  400ffb:	00 
  400ffc:	31 c0                	xor    %eax,%eax
  400ffe:	89 3d f4 44 20 00    	mov    %edi,0x2044f4(%rip)        # 6054f8 <check_level>
  401004:	8b 3d 3e 41 20 00    	mov    0x20413e(%rip),%edi        # 605148 <target_id>
  40100a:	e8 f2 1e 00 00       	callq  402f01 <gencookie>
  40100f:	89 05 ef 44 20 00    	mov    %eax,0x2044ef(%rip)        # 605504 <cookie>
  401015:	89 c7                	mov    %eax,%edi
  401017:	e8 e5 1e 00 00       	callq  402f01 <gencookie>
  40101c:	89 05 de 44 20 00    	mov    %eax,0x2044de(%rip)        # 605500 <authkey>
  401022:	8b 05 20 41 20 00    	mov    0x204120(%rip),%eax        # 605148 <target_id>
  401028:	8d 78 01             	lea    0x1(%rax),%edi
  40102b:	e8 20 fc ff ff       	callq  400c50 <srandom@plt>
  401030:	e8 3b fd ff ff       	callq  400d70 <random@plt>
  401035:	89 c7                	mov    %eax,%edi
  401037:	e8 a9 02 00 00       	callq  4012e5 <scramble>
  40103c:	89 c3                	mov    %eax,%ebx
  40103e:	85 ed                	test   %ebp,%ebp
  401040:	74 18                	je     40105a <initialize_target+0x7a>
  401042:	bf 00 00 00 00       	mov    $0x0,%edi
  401047:	e8 14 fd ff ff       	callq  400d60 <time@plt>
  40104c:	89 c7                	mov    %eax,%edi
  40104e:	e8 fd fb ff ff       	callq  400c50 <srandom@plt>
  401053:	e8 18 fd ff ff       	callq  400d70 <random@plt>
  401058:	eb 05                	jmp    40105f <initialize_target+0x7f>
  40105a:	b8 00 00 00 00       	mov    $0x0,%eax
  40105f:	01 c3                	add    %eax,%ebx
  401061:	0f b7 db             	movzwl %bx,%ebx
  401064:	8d 04 dd 00 01 00 00 	lea    0x100(,%rbx,8),%eax
  40106b:	89 c0                	mov    %eax,%eax
  40106d:	48 89 05 0c 44 20 00 	mov    %rax,0x20440c(%rip)        # 605480 <buf_offset>
  401074:	c6 05 ad 50 20 00 72 	movb   $0x72,0x2050ad(%rip)        # 606128 <target_prefix>
  40107b:	83 3d 06 44 20 00 00 	cmpl   $0x0,0x204406(%rip)        # 605488 <notify>
  401082:	74 65                	je     4010e9 <initialize_target+0x109>
  401084:	83 3d 7d 44 20 00 00 	cmpl   $0x0,0x20447d(%rip)        # 605508 <is_checker>
  40108b:	75 5c                	jne    4010e9 <initialize_target+0x109>
  40108d:	be 00 01 00 00       	mov    $0x100,%esi
  401092:	48 89 e7             	mov    %rsp,%rdi
  401095:	e8 56 fd ff ff       	callq  400df0 <gethostname@plt>
  40109a:	85 c0                	test   %eax,%eax
  40109c:	74 14                	je     4010b2 <initialize_target+0xd2>
  40109e:	bf 88 30 40 00       	mov    $0x403088,%edi
  4010a3:	e8 d8 fb ff ff       	callq  400c80 <puts@plt>
  4010a8:	bf 08 00 00 00       	mov    $0x8,%edi
  4010ad:	e8 4e fd ff ff       	callq  400e00 <exit@plt>
  4010b2:	48 8d bc 24 00 01 00 	lea    0x100(%rsp),%rdi
  4010b9:	00 
  4010ba:	e8 ac 1b 00 00       	callq  402c6b <init_driver>
  4010bf:	85 c0                	test   %eax,%eax
  4010c1:	79 26                	jns    4010e9 <initialize_target+0x109>
  4010c3:	48 8d 94 24 00 01 00 	lea    0x100(%rsp),%rdx
  4010ca:	00 
  4010cb:	be c0 30 40 00       	mov    $0x4030c0,%esi
  4010d0:	bf 01 00 00 00       	mov    $0x1,%edi
  4010d5:	b8 00 00 00 00       	mov    $0x0,%eax
  4010da:	e8 d1 fc ff ff       	callq  400db0 <__printf_chk@plt>
  4010df:	bf 08 00 00 00       	mov    $0x8,%edi
  4010e4:	e8 17 fd ff ff       	callq  400e00 <exit@plt>
  4010e9:	48 8b 84 24 08 21 00 	mov    0x2108(%rsp),%rax
  4010f0:	00 
  4010f1:	64 48 33 04 25 28 00 	xor    %fs:0x28,%rax
  4010f8:	00 00 
  4010fa:	74 05                	je     401101 <initialize_target+0x121>
  4010fc:	e8 9f fb ff ff       	callq  400ca0 <__stack_chk_fail@plt>
  401101:	48 81 c4 18 21 00 00 	add    $0x2118,%rsp
  401108:	5b                   	pop    %rbx
  401109:	5d                   	pop    %rbp
  40110a:	c3                   	retq   

000000000040110b <main>:
  40110b:	41 56                	push   %r14
  40110d:	41 55                	push   %r13
  40110f:	41 54                	push   %r12
  401111:	55                   	push   %rbp
  401112:	53                   	push   %rbx
  401113:	41 89 fc             	mov    %edi,%r12d
  401116:	48 89 f3             	mov    %rsi,%rbx
  401119:	be a6 1f 40 00       	mov    $0x401fa6,%esi
  40111e:	bf 0b 00 00 00       	mov    $0xb,%edi
  401123:	e8 e8 fb ff ff       	callq  400d10 <signal@plt>
  401128:	be 58 1f 40 00       	mov    $0x401f58,%esi
  40112d:	bf 07 00 00 00       	mov    $0x7,%edi
  401132:	e8 d9 fb ff ff       	callq  400d10 <signal@plt>
  401137:	be f4 1f 40 00       	mov    $0x401ff4,%esi
  40113c:	bf 04 00 00 00       	mov    $0x4,%edi
  401141:	e8 ca fb ff ff       	callq  400d10 <signal@plt>
  401146:	83 3d bb 43 20 00 00 	cmpl   $0x0,0x2043bb(%rip)        # 605508 <is_checker>
  40114d:	74 20                	je     40116f <main+0x64>
  40114f:	be 42 20 40 00       	mov    $0x402042,%esi
  401154:	bf 0e 00 00 00       	mov    $0xe,%edi
  401159:	e8 b2 fb ff ff       	callq  400d10 <signal@plt>
  40115e:	bf 05 00 00 00       	mov    $0x5,%edi
  401163:	e8 68 fb ff ff       	callq  400cd0 <alarm@plt>
  401168:	bd 8a 31 40 00       	mov    $0x40318a,%ebp
  40116d:	eb 05                	jmp    401174 <main+0x69>
  40116f:	bd 85 31 40 00       	mov    $0x403185,%ebp
  401174:	48 8b 05 25 43 20 00 	mov    0x204325(%rip),%rax        # 6054a0 <stdin@@GLIBC_2.2.5>
  40117b:	48 89 05 6e 43 20 00 	mov    %rax,0x20436e(%rip)        # 6054f0 <infile>
  401182:	41 bd 00 00 00 00    	mov    $0x0,%r13d
  401188:	41 be 00 00 00 00    	mov    $0x0,%r14d
  40118e:	e9 c6 00 00 00       	jmpq   401259 <main+0x14e>
  401193:	83 e8 61             	sub    $0x61,%eax
  401196:	3c 10                	cmp    $0x10,%al
  401198:	0f 87 9c 00 00 00    	ja     40123a <main+0x12f>
  40119e:	0f b6 c0             	movzbl %al,%eax
  4011a1:	ff 24 c5 d0 31 40 00 	jmpq   *0x4031d0(,%rax,8)
  4011a8:	48 8b 3b             	mov    (%rbx),%rdi
  4011ab:	e8 a6 fd ff ff       	callq  400f56 <usage>
  4011b0:	be c5 34 40 00       	mov    $0x4034c5,%esi
  4011b5:	48 8b 3d ec 42 20 00 	mov    0x2042ec(%rip),%rdi        # 6054a8 <optarg@@GLIBC_2.2.5>
  4011bc:	e8 ff fb ff ff       	callq  400dc0 <fopen@plt>
  4011c1:	48 89 05 28 43 20 00 	mov    %rax,0x204328(%rip)        # 6054f0 <infile>
  4011c8:	48 85 c0             	test   %rax,%rax
  4011cb:	0f 85 88 00 00 00    	jne    401259 <main+0x14e>
  4011d1:	48 8b 0d d0 42 20 00 	mov    0x2042d0(%rip),%rcx        # 6054a8 <optarg@@GLIBC_2.2.5>
  4011d8:	ba 92 31 40 00       	mov    $0x403192,%edx
  4011dd:	be 01 00 00 00       	mov    $0x1,%esi
  4011e2:	48 8b 3d d7 42 20 00 	mov    0x2042d7(%rip),%rdi        # 6054c0 <stderr@@GLIBC_2.2.5>
  4011e9:	e8 32 fc ff ff       	callq  400e20 <__fprintf_chk@plt>
  4011ee:	b8 01 00 00 00       	mov    $0x1,%eax
  4011f3:	e9 e4 00 00 00       	jmpq   4012dc <main+0x1d1>
  4011f8:	ba 10 00 00 00       	mov    $0x10,%edx
  4011fd:	be 00 00 00 00       	mov    $0x0,%esi
  401202:	48 8b 3d 9f 42 20 00 	mov    0x20429f(%rip),%rdi        # 6054a8 <optarg@@GLIBC_2.2.5>
  401209:	e8 d2 fb ff ff       	callq  400de0 <strtoul@plt>
  40120e:	41 89 c6             	mov    %eax,%r14d
  401211:	eb 46                	jmp    401259 <main+0x14e>
  401213:	ba 0a 00 00 00       	mov    $0xa,%edx
  401218:	be 00 00 00 00       	mov    $0x0,%esi
  40121d:	48 8b 3d 84 42 20 00 	mov    0x204284(%rip),%rdi        # 6054a8 <optarg@@GLIBC_2.2.5>
  401224:	e8 17 fb ff ff       	callq  400d40 <strtol@plt>
  401229:	41 89 c5             	mov    %eax,%r13d
  40122c:	eb 2b                	jmp    401259 <main+0x14e>
  40122e:	c7 05 50 42 20 00 00 	movl   $0x0,0x204250(%rip)        # 605488 <notify>
  401235:	00 00 00 
  401238:	eb 1f                	jmp    401259 <main+0x14e>
  40123a:	0f be d2             	movsbl %dl,%edx
  40123d:	be af 31 40 00       	mov    $0x4031af,%esi
  401242:	bf 01 00 00 00       	mov    $0x1,%edi
  401247:	b8 00 00 00 00       	mov    $0x0,%eax
  40124c:	e8 5f fb ff ff       	callq  400db0 <__printf_chk@plt>
  401251:	48 8b 3b             	mov    (%rbx),%rdi
  401254:	e8 fd fc ff ff       	callq  400f56 <usage>
  401259:	48 89 ea             	mov    %rbp,%rdx
  40125c:	48 89 de             	mov    %rbx,%rsi
  40125f:	44 89 e7             	mov    %r12d,%edi
  401262:	e8 69 fb ff ff       	callq  400dd0 <getopt@plt>
  401267:	89 c2                	mov    %eax,%edx
  401269:	3c ff                	cmp    $0xff,%al
  40126b:	0f 85 22 ff ff ff    	jne    401193 <main+0x88>
  401271:	be 01 00 00 00       	mov    $0x1,%esi
  401276:	44 89 ef             	mov    %r13d,%edi
  401279:	e8 62 fd ff ff       	callq  400fe0 <initialize_target>
  40127e:	83 3d 83 42 20 00 00 	cmpl   $0x0,0x204283(%rip)        # 605508 <is_checker>
  401285:	74 2a                	je     4012b1 <main+0x1a6>
  401287:	44 3b 35 72 42 20 00 	cmp    0x204272(%rip),%r14d        # 605500 <authkey>
  40128e:	74 21                	je     4012b1 <main+0x1a6>
  401290:	44 89 f2             	mov    %r14d,%edx
  401293:	be e8 30 40 00       	mov    $0x4030e8,%esi
  401298:	bf 01 00 00 00       	mov    $0x1,%edi
  40129d:	b8 00 00 00 00       	mov    $0x0,%eax
  4012a2:	e8 09 fb ff ff       	callq  400db0 <__printf_chk@plt>
  4012a7:	b8 00 00 00 00       	mov    $0x0,%eax
  4012ac:	e8 43 09 00 00       	callq  401bf4 <check_fail>
  4012b1:	8b 15 4d 42 20 00    	mov    0x20424d(%rip),%edx        # 605504 <cookie>
  4012b7:	be c2 31 40 00       	mov    $0x4031c2,%esi
  4012bc:	bf 01 00 00 00       	mov    $0x1,%edi
  4012c1:	b8 00 00 00 00       	mov    $0x0,%eax
  4012c6:	e8 e5 fa ff ff       	callq  400db0 <__printf_chk@plt>
  4012cb:	48 8b 3d ae 41 20 00 	mov    0x2041ae(%rip),%rdi        # 605480 <buf_offset>
  4012d2:	e8 be 0d 00 00       	callq  402095 <launch>
  4012d7:	b8 00 00 00 00       	mov    $0x0,%eax
  4012dc:	5b                   	pop    %rbx
  4012dd:	5d                   	pop    %rbp
  4012de:	41 5c                	pop    %r12
  4012e0:	41 5d                	pop    %r13
  4012e2:	41 5e                	pop    %r14
  4012e4:	c3                   	retq   

00000000004012e5 <scramble>:
  4012e5:	48 83 ec 38          	sub    $0x38,%rsp
  4012e9:	64 48 8b 04 25 28 00 	mov    %fs:0x28,%rax
  4012f0:	00 00 
  4012f2:	48 89 44 24 28       	mov    %rax,0x28(%rsp)
  4012f7:	31 c0                	xor    %eax,%eax
  4012f9:	eb 10                	jmp    40130b <scramble+0x26>
  4012fb:	69 d0 4a e1 00 00    	imul   $0xe14a,%eax,%edx
  401301:	01 fa                	add    %edi,%edx
  401303:	89 c1                	mov    %eax,%ecx
  401305:	89 14 8c             	mov    %edx,(%rsp,%rcx,4)
  401308:	83 c0 01             	add    $0x1,%eax
  40130b:	83 f8 09             	cmp    $0x9,%eax
  40130e:	76 eb                	jbe    4012fb <scramble+0x16>
  401310:	8b 44 24 0c          	mov    0xc(%rsp),%eax
  401314:	69 c0 e7 be 00 00    	imul   $0xbee7,%eax,%eax
  40131a:	89 44 24 0c          	mov    %eax,0xc(%rsp)
  40131e:	8b 44 24 1c          	mov    0x1c(%rsp),%eax
  401322:	69 c0 95 4f 00 00    	imul   $0x4f95,%eax,%eax
  401328:	89 44 24 1c          	mov    %eax,0x1c(%rsp)
  40132c:	8b 04 24             	mov    (%rsp),%eax
  40132f:	69 c0 57 36 00 00    	imul   $0x3657,%eax,%eax
  401335:	89 04 24             	mov    %eax,(%rsp)
  401338:	8b 44 24 14          	mov    0x14(%rsp),%eax
  40133c:	69 c0 f4 dc 00 00    	imul   $0xdcf4,%eax,%eax
  401342:	89 44 24 14          	mov    %eax,0x14(%rsp)
  401346:	8b 44 24 0c          	mov    0xc(%rsp),%eax
  40134a:	69 c0 c3 26 00 00    	imul   $0x26c3,%eax,%eax
  401350:	89 44 24 0c          	mov    %eax,0xc(%rsp)
  401354:	8b 44 24 10          	mov    0x10(%rsp),%eax
  401358:	69 c0 1d 56 00 00    	imul   $0x561d,%eax,%eax
  40135e:	89 44 24 10          	mov    %eax,0x10(%rsp)
  401362:	8b 44 24 20          	mov    0x20(%rsp),%eax
  401366:	69 c0 f8 db 00 00    	imul   $0xdbf8,%eax,%eax
  40136c:	89 44 24 20          	mov    %eax,0x20(%rsp)
  401370:	8b 44 24 20          	mov    0x20(%rsp),%eax
  401374:	69 c0 48 ea 00 00    	imul   $0xea48,%eax,%eax
  40137a:	89 44 24 20          	mov    %eax,0x20(%rsp)
  40137e:	8b 44 24 14          	mov    0x14(%rsp),%eax
  401382:	69 c0 ed db 00 00    	imul   $0xdbed,%eax,%eax
  401388:	89 44 24 14          	mov    %eax,0x14(%rsp)
  40138c:	8b 44 24 18          	mov    0x18(%rsp),%eax
  401390:	69 c0 a7 be 00 00    	imul   $0xbea7,%eax,%eax
  401396:	89 44 24 18          	mov    %eax,0x18(%rsp)
  40139a:	8b 44 24 14          	mov    0x14(%rsp),%eax
  40139e:	69 c0 b2 e9 00 00    	imul   $0xe9b2,%eax,%eax
  4013a4:	89 44 24 14          	mov    %eax,0x14(%rsp)
  4013a8:	8b 44 24 24          	mov    0x24(%rsp),%eax
  4013ac:	69 c0 a5 e9 00 00    	imul   $0xe9a5,%eax,%eax
  4013b2:	89 44 24 24          	mov    %eax,0x24(%rsp)
  4013b6:	8b 44 24 14          	mov    0x14(%rsp),%eax
  4013ba:	69 c0 4a fe 00 00    	imul   $0xfe4a,%eax,%eax
  4013c0:	89 44 24 14          	mov    %eax,0x14(%rsp)
  4013c4:	8b 44 24 10          	mov    0x10(%rsp),%eax
  4013c8:	69 c0 af 70 00 00    	imul   $0x70af,%eax,%eax
  4013ce:	89 44 24 10          	mov    %eax,0x10(%rsp)
  4013d2:	8b 44 24 0c          	mov    0xc(%rsp),%eax
  4013d6:	69 c0 cf 23 00 00    	imul   $0x23cf,%eax,%eax
  4013dc:	89 44 24 0c          	mov    %eax,0xc(%rsp)
  4013e0:	8b 44 24 08          	mov    0x8(%rsp),%eax
  4013e4:	69 c0 1a 7c 00 00    	imul   $0x7c1a,%eax,%eax
  4013ea:	89 44 24 08          	mov    %eax,0x8(%rsp)
  4013ee:	8b 44 24 1c          	mov    0x1c(%rsp),%eax
  4013f2:	69 c0 de 97 00 00    	imul   $0x97de,%eax,%eax
  4013f8:	89 44 24 1c          	mov    %eax,0x1c(%rsp)
  4013fc:	8b 44 24 04          	mov    0x4(%rsp),%eax
  401400:	69 c0 eb 2b 00 00    	imul   $0x2beb,%eax,%eax
  401406:	89 44 24 04          	mov    %eax,0x4(%rsp)
  40140a:	8b 04 24             	mov    (%rsp),%eax
  40140d:	69 c0 b9 0d 00 00    	imul   $0xdb9,%eax,%eax
  401413:	89 04 24             	mov    %eax,(%rsp)
  401416:	8b 44 24 14          	mov    0x14(%rsp),%eax
  40141a:	69 c0 5c 5d 00 00    	imul   $0x5d5c,%eax,%eax
  401420:	89 44 24 14          	mov    %eax,0x14(%rsp)
  401424:	8b 44 24 18          	mov    0x18(%rsp),%eax
  401428:	69 c0 df 9b 00 00    	imul   $0x9bdf,%eax,%eax
  40142e:	89 44 24 18          	mov    %eax,0x18(%rsp)
  401432:	8b 44 24 08          	mov    0x8(%rsp),%eax
  401436:	69 c0 5f c0 00 00    	imul   $0xc05f,%eax,%eax
  40143c:	89 44 24 08          	mov    %eax,0x8(%rsp)
  401440:	8b 44 24 10          	mov    0x10(%rsp),%eax
  401444:	69 c0 b4 18 00 00    	imul   $0x18b4,%eax,%eax
  40144a:	89 44 24 10          	mov    %eax,0x10(%rsp)
  40144e:	8b 04 24             	mov    (%rsp),%eax
  401451:	69 c0 fc 08 00 00    	imul   $0x8fc,%eax,%eax
  401457:	89 04 24             	mov    %eax,(%rsp)
  40145a:	8b 44 24 14          	mov    0x14(%rsp),%eax
  40145e:	69 c0 bd f5 00 00    	imul   $0xf5bd,%eax,%eax
  401464:	89 44 24 14          	mov    %eax,0x14(%rsp)
  401468:	8b 44 24 14          	mov    0x14(%rsp),%eax
  40146c:	69 c0 e8 e8 00 00    	imul   $0xe8e8,%eax,%eax
  401472:	89 44 24 14          	mov    %eax,0x14(%rsp)
  401476:	8b 44 24 04          	mov    0x4(%rsp),%eax
  40147a:	69 c0 f1 2a 00 00    	imul   $0x2af1,%eax,%eax
  401480:	89 44 24 04          	mov    %eax,0x4(%rsp)
  401484:	8b 44 24 04          	mov    0x4(%rsp),%eax
  401488:	69 c0 78 ee 00 00    	imul   $0xee78,%eax,%eax
  40148e:	89 44 24 04          	mov    %eax,0x4(%rsp)
  401492:	8b 44 24 04          	mov    0x4(%rsp),%eax
  401496:	69 c0 ca 8b 00 00    	imul   $0x8bca,%eax,%eax
  40149c:	89 44 24 04          	mov    %eax,0x4(%rsp)
  4014a0:	8b 44 24 1c          	mov    0x1c(%rsp),%eax
  4014a4:	69 c0 0b c4 00 00    	imul   $0xc40b,%eax,%eax
  4014aa:	89 44 24 1c          	mov    %eax,0x1c(%rsp)
  4014ae:	8b 44 24 24          	mov    0x24(%rsp),%eax
  4014b2:	69 c0 34 77 00 00    	imul   $0x7734,%eax,%eax
  4014b8:	89 44 24 24          	mov    %eax,0x24(%rsp)
  4014bc:	8b 44 24 10          	mov    0x10(%rsp),%eax
  4014c0:	69 c0 4f 92 00 00    	imul   $0x924f,%eax,%eax
  4014c6:	89 44 24 10          	mov    %eax,0x10(%rsp)
  4014ca:	8b 44 24 04          	mov    0x4(%rsp),%eax
  4014ce:	69 c0 d4 0b 00 00    	imul   $0xbd4,%eax,%eax
  4014d4:	89 44 24 04          	mov    %eax,0x4(%rsp)
  4014d8:	8b 44 24 20          	mov    0x20(%rsp),%eax
  4014dc:	69 c0 48 dd 00 00    	imul   $0xdd48,%eax,%eax
  4014e2:	89 44 24 20          	mov    %eax,0x20(%rsp)
  4014e6:	8b 44 24 08          	mov    0x8(%rsp),%eax
  4014ea:	69 c0 1b c7 00 00    	imul   $0xc71b,%eax,%eax
  4014f0:	89 44 24 08          	mov    %eax,0x8(%rsp)
  4014f4:	8b 44 24 20          	mov    0x20(%rsp),%eax
  4014f8:	69 c0 0b 4e 00 00    	imul   $0x4e0b,%eax,%eax
  4014fe:	89 44 24 20          	mov    %eax,0x20(%rsp)
  401502:	8b 44 24 10          	mov    0x10(%rsp),%eax
  401506:	69 c0 1e ee 00 00    	imul   $0xee1e,%eax,%eax
  40150c:	89 44 24 10          	mov    %eax,0x10(%rsp)
  401510:	8b 44 24 1c          	mov    0x1c(%rsp),%eax
  401514:	69 c0 d2 da 00 00    	imul   $0xdad2,%eax,%eax
  40151a:	89 44 24 1c          	mov    %eax,0x1c(%rsp)
  40151e:	8b 44 24 08          	mov    0x8(%rsp),%eax
  401522:	69 c0 12 b9 00 00    	imul   $0xb912,%eax,%eax
  401528:	89 44 24 08          	mov    %eax,0x8(%rsp)
  40152c:	8b 44 24 10          	mov    0x10(%rsp),%eax
  401530:	69 c0 75 fb 00 00    	imul   $0xfb75,%eax,%eax
  401536:	89 44 24 10          	mov    %eax,0x10(%rsp)
  40153a:	8b 44 24 0c          	mov    0xc(%rsp),%eax
  40153e:	69 c0 72 ab 00 00    	imul   $0xab72,%eax,%eax
  401544:	89 44 24 0c          	mov    %eax,0xc(%rsp)
  401548:	8b 44 24 04          	mov    0x4(%rsp),%eax
  40154c:	69 c0 3f 8e 00 00    	imul   $0x8e3f,%eax,%eax
  401552:	89 44 24 04          	mov    %eax,0x4(%rsp)
  401556:	8b 44 24 18          	mov    0x18(%rsp),%eax
  40155a:	69 c0 ea b6 00 00    	imul   $0xb6ea,%eax,%eax
  401560:	89 44 24 18          	mov    %eax,0x18(%rsp)
  401564:	8b 44 24 10          	mov    0x10(%rsp),%eax
  401568:	69 c0 9e ff 00 00    	imul   $0xff9e,%eax,%eax
  40156e:	89 44 24 10          	mov    %eax,0x10(%rsp)
  401572:	8b 04 24             	mov    (%rsp),%eax
  401575:	69 c0 df db 00 00    	imul   $0xdbdf,%eax,%eax
  40157b:	89 04 24             	mov    %eax,(%rsp)
  40157e:	8b 44 24 18          	mov    0x18(%rsp),%eax
  401582:	69 c0 4e f2 00 00    	imul   $0xf24e,%eax,%eax
  401588:	89 44 24 18          	mov    %eax,0x18(%rsp)
  40158c:	8b 44 24 0c          	mov    0xc(%rsp),%eax
  401590:	69 c0 cf 03 00 00    	imul   $0x3cf,%eax,%eax
  401596:	89 44 24 0c          	mov    %eax,0xc(%rsp)
  40159a:	8b 04 24             	mov    (%rsp),%eax
  40159d:	69 c0 26 62 00 00    	imul   $0x6226,%eax,%eax
  4015a3:	89 04 24             	mov    %eax,(%rsp)
  4015a6:	8b 44 24 18          	mov    0x18(%rsp),%eax
  4015aa:	69 c0 d8 42 00 00    	imul   $0x42d8,%eax,%eax
  4015b0:	89 44 24 18          	mov    %eax,0x18(%rsp)
  4015b4:	8b 44 24 24          	mov    0x24(%rsp),%eax
  4015b8:	69 c0 32 29 00 00    	imul   $0x2932,%eax,%eax
  4015be:	89 44 24 24          	mov    %eax,0x24(%rsp)
  4015c2:	8b 44 24 0c          	mov    0xc(%rsp),%eax
  4015c6:	69 c0 13 7a 00 00    	imul   $0x7a13,%eax,%eax
  4015cc:	89 44 24 0c          	mov    %eax,0xc(%rsp)
  4015d0:	8b 44 24 04          	mov    0x4(%rsp),%eax
  4015d4:	69 c0 ee 6c 00 00    	imul   $0x6cee,%eax,%eax
  4015da:	89 44 24 04          	mov    %eax,0x4(%rsp)
  4015de:	8b 04 24             	mov    (%rsp),%eax
  4015e1:	69 c0 a7 85 00 00    	imul   $0x85a7,%eax,%eax
  4015e7:	89 04 24             	mov    %eax,(%rsp)
  4015ea:	8b 04 24             	mov    (%rsp),%eax
  4015ed:	69 c0 04 6f 00 00    	imul   $0x6f04,%eax,%eax
  4015f3:	89 04 24             	mov    %eax,(%rsp)
  4015f6:	8b 44 24 1c          	mov    0x1c(%rsp),%eax
  4015fa:	69 c0 8f 2b 00 00    	imul   $0x2b8f,%eax,%eax
  401600:	89 44 24 1c          	mov    %eax,0x1c(%rsp)
  401604:	8b 44 24 0c          	mov    0xc(%rsp),%eax
  401608:	69 c0 8a ed 00 00    	imul   $0xed8a,%eax,%eax
  40160e:	89 44 24 0c          	mov    %eax,0xc(%rsp)
  401612:	8b 44 24 0c          	mov    0xc(%rsp),%eax
  401616:	69 c0 d6 4e 00 00    	imul   $0x4ed6,%eax,%eax
  40161c:	89 44 24 0c          	mov    %eax,0xc(%rsp)
  401620:	8b 44 24 20          	mov    0x20(%rsp),%eax
  401624:	69 c0 64 ad 00 00    	imul   $0xad64,%eax,%eax
  40162a:	89 44 24 20          	mov    %eax,0x20(%rsp)
  40162e:	8b 44 24 20          	mov    0x20(%rsp),%eax
  401632:	69 c0 81 f8 00 00    	imul   $0xf881,%eax,%eax
  401638:	89 44 24 20          	mov    %eax,0x20(%rsp)
  40163c:	8b 44 24 0c          	mov    0xc(%rsp),%eax
  401640:	69 c0 75 48 00 00    	imul   $0x4875,%eax,%eax
  401646:	89 44 24 0c          	mov    %eax,0xc(%rsp)
  40164a:	8b 44 24 1c          	mov    0x1c(%rsp),%eax
  40164e:	69 c0 ac 70 00 00    	imul   $0x70ac,%eax,%eax
  401654:	89 44 24 1c          	mov    %eax,0x1c(%rsp)
  401658:	8b 04 24             	mov    (%rsp),%eax
  40165b:	69 c0 75 27 00 00    	imul   $0x2775,%eax,%eax
  401661:	89 04 24             	mov    %eax,(%rsp)
  401664:	8b 44 24 24          	mov    0x24(%rsp),%eax
  401668:	69 c0 60 bf 00 00    	imul   $0xbf60,%eax,%eax
  40166e:	89 44 24 24          	mov    %eax,0x24(%rsp)
  401672:	8b 44 24 24          	mov    0x24(%rsp),%eax
  401676:	69 c0 20 84 00 00    	imul   $0x8420,%eax,%eax
  40167c:	89 44 24 24          	mov    %eax,0x24(%rsp)
  401680:	8b 04 24             	mov    (%rsp),%eax
  401683:	69 c0 0a c9 00 00    	imul   $0xc90a,%eax,%eax
  401689:	89 04 24             	mov    %eax,(%rsp)
  40168c:	8b 44 24 24          	mov    0x24(%rsp),%eax
  401690:	69 c0 2c 0c 00 00    	imul   $0xc2c,%eax,%eax
  401696:	89 44 24 24          	mov    %eax,0x24(%rsp)
  40169a:	8b 44 24 20          	mov    0x20(%rsp),%eax
  40169e:	69 c0 8f 24 00 00    	imul   $0x248f,%eax,%eax
  4016a4:	89 44 24 20          	mov    %eax,0x20(%rsp)
  4016a8:	8b 44 24 08          	mov    0x8(%rsp),%eax
  4016ac:	69 c0 4e ab 00 00    	imul   $0xab4e,%eax,%eax
  4016b2:	89 44 24 08          	mov    %eax,0x8(%rsp)
  4016b6:	8b 44 24 0c          	mov    0xc(%rsp),%eax
  4016ba:	69 c0 db c0 00 00    	imul   $0xc0db,%eax,%eax
  4016c0:	89 44 24 0c          	mov    %eax,0xc(%rsp)
  4016c4:	8b 44 24 18          	mov    0x18(%rsp),%eax
  4016c8:	69 c0 f0 e8 00 00    	imul   $0xe8f0,%eax,%eax
  4016ce:	89 44 24 18          	mov    %eax,0x18(%rsp)
  4016d2:	8b 44 24 18          	mov    0x18(%rsp),%eax
  4016d6:	69 c0 cc 84 00 00    	imul   $0x84cc,%eax,%eax
  4016dc:	89 44 24 18          	mov    %eax,0x18(%rsp)
  4016e0:	8b 44 24 14          	mov    0x14(%rsp),%eax
  4016e4:	69 c0 6b c3 00 00    	imul   $0xc36b,%eax,%eax
  4016ea:	89 44 24 14          	mov    %eax,0x14(%rsp)
  4016ee:	8b 44 24 1c          	mov    0x1c(%rsp),%eax
  4016f2:	69 c0 44 52 00 00    	imul   $0x5244,%eax,%eax
  4016f8:	89 44 24 1c          	mov    %eax,0x1c(%rsp)
  4016fc:	8b 44 24 14          	mov    0x14(%rsp),%eax
  401700:	69 c0 63 d9 00 00    	imul   $0xd963,%eax,%eax
  401706:	89 44 24 14          	mov    %eax,0x14(%rsp)
  40170a:	8b 44 24 20          	mov    0x20(%rsp),%eax
  40170e:	69 c0 d1 1d 00 00    	imul   $0x1dd1,%eax,%eax
  401714:	89 44 24 20          	mov    %eax,0x20(%rsp)
  401718:	8b 44 24 18          	mov    0x18(%rsp),%eax
  40171c:	69 c0 26 1f 00 00    	imul   $0x1f26,%eax,%eax
  401722:	89 44 24 18          	mov    %eax,0x18(%rsp)
  401726:	8b 44 24 1c          	mov    0x1c(%rsp),%eax
  40172a:	69 c0 9b 5c 00 00    	imul   $0x5c9b,%eax,%eax
  401730:	89 44 24 1c          	mov    %eax,0x1c(%rsp)
  401734:	8b 44 24 20          	mov    0x20(%rsp),%eax
  401738:	69 c0 fa 02 00 00    	imul   $0x2fa,%eax,%eax
  40173e:	89 44 24 20          	mov    %eax,0x20(%rsp)
  401742:	8b 44 24 20          	mov    0x20(%rsp),%eax
  401746:	69 c0 37 d0 00 00    	imul   $0xd037,%eax,%eax
  40174c:	89 44 24 20          	mov    %eax,0x20(%rsp)
  401750:	8b 44 24 1c          	mov    0x1c(%rsp),%eax
  401754:	69 c0 35 1e 00 00    	imul   $0x1e35,%eax,%eax
  40175a:	89 44 24 1c          	mov    %eax,0x1c(%rsp)
  40175e:	8b 44 24 1c          	mov    0x1c(%rsp),%eax
  401762:	69 c0 6c 34 00 00    	imul   $0x346c,%eax,%eax
  401768:	89 44 24 1c          	mov    %eax,0x1c(%rsp)
  40176c:	8b 44 24 0c          	mov    0xc(%rsp),%eax
  401770:	69 c0 5e dc 00 00    	imul   $0xdc5e,%eax,%eax
  401776:	89 44 24 0c          	mov    %eax,0xc(%rsp)
  40177a:	8b 44 24 08          	mov    0x8(%rsp),%eax
  40177e:	69 c0 7c a3 00 00    	imul   $0xa37c,%eax,%eax
  401784:	89 44 24 08          	mov    %eax,0x8(%rsp)
  401788:	8b 44 24 24          	mov    0x24(%rsp),%eax
  40178c:	69 c0 31 03 00 00    	imul   $0x331,%eax,%eax
  401792:	89 44 24 24          	mov    %eax,0x24(%rsp)
  401796:	8b 04 24             	mov    (%rsp),%eax
  401799:	69 c0 ff a1 00 00    	imul   $0xa1ff,%eax,%eax
  40179f:	89 04 24             	mov    %eax,(%rsp)
  4017a2:	8b 44 24 20          	mov    0x20(%rsp),%eax
  4017a6:	69 c0 c1 50 00 00    	imul   $0x50c1,%eax,%eax
  4017ac:	89 44 24 20          	mov    %eax,0x20(%rsp)
  4017b0:	8b 04 24             	mov    (%rsp),%eax
  4017b3:	69 c0 9c c2 00 00    	imul   $0xc29c,%eax,%eax
  4017b9:	89 04 24             	mov    %eax,(%rsp)
  4017bc:	8b 04 24             	mov    (%rsp),%eax
  4017bf:	69 c0 6f fa 00 00    	imul   $0xfa6f,%eax,%eax
  4017c5:	89 04 24             	mov    %eax,(%rsp)
  4017c8:	8b 44 24 20          	mov    0x20(%rsp),%eax
  4017cc:	69 c0 fb 84 00 00    	imul   $0x84fb,%eax,%eax
  4017d2:	89 44 24 20          	mov    %eax,0x20(%rsp)
  4017d6:	8b 44 24 08          	mov    0x8(%rsp),%eax
  4017da:	69 c0 a6 5f 00 00    	imul   $0x5fa6,%eax,%eax
  4017e0:	89 44 24 08          	mov    %eax,0x8(%rsp)
  4017e4:	8b 44 24 10          	mov    0x10(%rsp),%eax
  4017e8:	69 c0 ab f5 00 00    	imul   $0xf5ab,%eax,%eax
  4017ee:	89 44 24 10          	mov    %eax,0x10(%rsp)
  4017f2:	8b 44 24 08          	mov    0x8(%rsp),%eax
  4017f6:	69 c0 4a 31 00 00    	imul   $0x314a,%eax,%eax
  4017fc:	89 44 24 08          	mov    %eax,0x8(%rsp)
  401800:	8b 44 24 18          	mov    0x18(%rsp),%eax
  401804:	69 c0 68 c5 00 00    	imul   $0xc568,%eax,%eax
  40180a:	89 44 24 18          	mov    %eax,0x18(%rsp)
  40180e:	8b 44 24 0c          	mov    0xc(%rsp),%eax
  401812:	69 c0 42 6e 00 00    	imul   $0x6e42,%eax,%eax
  401818:	89 44 24 0c          	mov    %eax,0xc(%rsp)
  40181c:	8b 44 24 24          	mov    0x24(%rsp),%eax
  401820:	69 c0 5e bb 00 00    	imul   $0xbb5e,%eax,%eax
  401826:	89 44 24 24          	mov    %eax,0x24(%rsp)
  40182a:	8b 44 24 18          	mov    0x18(%rsp),%eax
  40182e:	69 c0 e0 2e 00 00    	imul   $0x2ee0,%eax,%eax
  401834:	89 44 24 18          	mov    %eax,0x18(%rsp)
  401838:	8b 44 24 08          	mov    0x8(%rsp),%eax
  40183c:	69 c0 d9 b6 00 00    	imul   $0xb6d9,%eax,%eax
  401842:	89 44 24 08          	mov    %eax,0x8(%rsp)
  401846:	ba 00 00 00 00       	mov    $0x0,%edx
  40184b:	b8 00 00 00 00       	mov    $0x0,%eax
  401850:	eb 0a                	jmp    40185c <scramble+0x577>
  401852:	89 d1                	mov    %edx,%ecx
  401854:	8b 0c 8c             	mov    (%rsp,%rcx,4),%ecx
  401857:	01 c8                	add    %ecx,%eax
  401859:	83 c2 01             	add    $0x1,%edx
  40185c:	83 fa 09             	cmp    $0x9,%edx
  40185f:	76 f1                	jbe    401852 <scramble+0x56d>
  401861:	48 8b 74 24 28       	mov    0x28(%rsp),%rsi
  401866:	64 48 33 34 25 28 00 	xor    %fs:0x28,%rsi
  40186d:	00 00 
  40186f:	74 05                	je     401876 <scramble+0x591>
  401871:	e8 2a f4 ff ff       	callq  400ca0 <__stack_chk_fail@plt>
  401876:	48 83 c4 38          	add    $0x38,%rsp
  40187a:	c3                   	retq   

000000000040187b <getbuf>:
  40187b:	48 83 ec 28          	sub    $0x28,%rsp
  40187f:	48 89 e7             	mov    %rsp,%rdi
  401882:	e8 a2 03 00 00       	callq  401c29 <Gets>
  401887:	b8 01 00 00 00       	mov    $0x1,%eax
  40188c:	48 83 c4 28          	add    $0x28,%rsp
  401890:	c3                   	retq   

0000000000401891 <touch1>:
  401891:	48 83 ec 08          	sub    $0x8,%rsp
  401895:	c7 05 5d 3c 20 00 01 	movl   $0x1,0x203c5d(%rip)        # 6054fc <vlevel>
  40189c:	00 00 00 
  40189f:	bf 17 33 40 00       	mov    $0x403317,%edi
  4018a4:	e8 d7 f3 ff ff       	callq  400c80 <puts@plt>
  4018a9:	bf 01 00 00 00       	mov    $0x1,%edi
  4018ae:	e8 bb 05 00 00       	callq  401e6e <validate>
  4018b3:	bf 00 00 00 00       	mov    $0x0,%edi
  4018b8:	e8 43 f5 ff ff       	callq  400e00 <exit@plt>

00000000004018bd <touch2>:
  4018bd:	48 83 ec 08          	sub    $0x8,%rsp
  4018c1:	89 fa                	mov    %edi,%edx
  4018c3:	c7 05 2f 3c 20 00 02 	movl   $0x2,0x203c2f(%rip)        # 6054fc <vlevel>
  4018ca:	00 00 00 
  4018cd:	39 3d 31 3c 20 00    	cmp    %edi,0x203c31(%rip)        # 605504 <cookie>
  4018d3:	75 20                	jne    4018f5 <touch2+0x38>
  4018d5:	be 40 33 40 00       	mov    $0x403340,%esi
  4018da:	bf 01 00 00 00       	mov    $0x1,%edi
  4018df:	b8 00 00 00 00       	mov    $0x0,%eax
  4018e4:	e8 c7 f4 ff ff       	callq  400db0 <__printf_chk@plt>
  4018e9:	bf 02 00 00 00       	mov    $0x2,%edi
  4018ee:	e8 7b 05 00 00       	callq  401e6e <validate>
  4018f3:	eb 1e                	jmp    401913 <touch2+0x56>
  4018f5:	be 68 33 40 00       	mov    $0x403368,%esi
  4018fa:	bf 01 00 00 00       	mov    $0x1,%edi
  4018ff:	b8 00 00 00 00       	mov    $0x0,%eax
  401904:	e8 a7 f4 ff ff       	callq  400db0 <__printf_chk@plt>
  401909:	bf 02 00 00 00       	mov    $0x2,%edi
  40190e:	e8 1d 06 00 00       	callq  401f30 <fail>
  401913:	bf 00 00 00 00       	mov    $0x0,%edi
  401918:	e8 e3 f4 ff ff       	callq  400e00 <exit@plt>

000000000040191d <hexmatch>:
  40191d:	41 54                	push   %r12
  40191f:	55                   	push   %rbp
  401920:	53                   	push   %rbx
  401921:	48 83 c4 80          	add    $0xffffffffffffff80,%rsp
  401925:	89 fd                	mov    %edi,%ebp
  401927:	48 89 f3             	mov    %rsi,%rbx
  40192a:	64 48 8b 04 25 28 00 	mov    %fs:0x28,%rax
  401931:	00 00 
  401933:	48 89 44 24 78       	mov    %rax,0x78(%rsp)
  401938:	31 c0                	xor    %eax,%eax
  40193a:	e8 31 f4 ff ff       	callq  400d70 <random@plt>
  40193f:	48 89 c1             	mov    %rax,%rcx
  401942:	48 ba 0b d7 a3 70 3d 	movabs $0xa3d70a3d70a3d70b,%rdx
  401949:	0a d7 a3 
  40194c:	48 f7 ea             	imul   %rdx
  40194f:	48 01 ca             	add    %rcx,%rdx
  401952:	48 c1 fa 06          	sar    $0x6,%rdx
  401956:	48 89 c8             	mov    %rcx,%rax
  401959:	48 c1 f8 3f          	sar    $0x3f,%rax
  40195d:	48 29 c2             	sub    %rax,%rdx
  401960:	48 8d 04 92          	lea    (%rdx,%rdx,4),%rax
  401964:	48 8d 14 80          	lea    (%rax,%rax,4),%rdx
  401968:	48 8d 04 95 00 00 00 	lea    0x0(,%rdx,4),%rax
  40196f:	00 
  401970:	48 29 c1             	sub    %rax,%rcx
  401973:	4c 8d 24 0c          	lea    (%rsp,%rcx,1),%r12
  401977:	41 89 e8             	mov    %ebp,%r8d
  40197a:	b9 34 33 40 00       	mov    $0x403334,%ecx
  40197f:	48 c7 c2 ff ff ff ff 	mov    $0xffffffffffffffff,%rdx
  401986:	be 01 00 00 00       	mov    $0x1,%esi
  40198b:	4c 89 e7             	mov    %r12,%rdi
  40198e:	b8 00 00 00 00       	mov    $0x0,%eax
  401993:	e8 98 f4 ff ff       	callq  400e30 <__sprintf_chk@plt>
  401998:	ba 09 00 00 00       	mov    $0x9,%edx
  40199d:	4c 89 e6             	mov    %r12,%rsi
  4019a0:	48 89 df             	mov    %rbx,%rdi
  4019a3:	e8 b8 f2 ff ff       	callq  400c60 <strncmp@plt>
  4019a8:	85 c0                	test   %eax,%eax
  4019aa:	0f 94 c0             	sete   %al
  4019ad:	48 8b 5c 24 78       	mov    0x78(%rsp),%rbx
  4019b2:	64 48 33 1c 25 28 00 	xor    %fs:0x28,%rbx
  4019b9:	00 00 
  4019bb:	74 05                	je     4019c2 <hexmatch+0xa5>
  4019bd:	e8 de f2 ff ff       	callq  400ca0 <__stack_chk_fail@plt>
  4019c2:	0f b6 c0             	movzbl %al,%eax
  4019c5:	48 83 ec 80          	sub    $0xffffffffffffff80,%rsp
  4019c9:	5b                   	pop    %rbx
  4019ca:	5d                   	pop    %rbp
  4019cb:	41 5c                	pop    %r12
  4019cd:	c3                   	retq   

00000000004019ce <touch3>:
  4019ce:	53                   	push   %rbx
  4019cf:	48 89 fb             	mov    %rdi,%rbx
  4019d2:	c7 05 20 3b 20 00 03 	movl   $0x3,0x203b20(%rip)        # 6054fc <vlevel>
  4019d9:	00 00 00 
  4019dc:	48 89 fe             	mov    %rdi,%rsi
  4019df:	8b 3d 1f 3b 20 00    	mov    0x203b1f(%rip),%edi        # 605504 <cookie>
  4019e5:	e8 33 ff ff ff       	callq  40191d <hexmatch>
  4019ea:	85 c0                	test   %eax,%eax
  4019ec:	74 23                	je     401a11 <touch3+0x43>
  4019ee:	48 89 da             	mov    %rbx,%rdx
  4019f1:	be 90 33 40 00       	mov    $0x403390,%esi
  4019f6:	bf 01 00 00 00       	mov    $0x1,%edi
  4019fb:	b8 00 00 00 00       	mov    $0x0,%eax
  401a00:	e8 ab f3 ff ff       	callq  400db0 <__printf_chk@plt>
  401a05:	bf 03 00 00 00       	mov    $0x3,%edi
  401a0a:	e8 5f 04 00 00       	callq  401e6e <validate>
  401a0f:	eb 21                	jmp    401a32 <touch3+0x64>
  401a11:	48 89 da             	mov    %rbx,%rdx
  401a14:	be b8 33 40 00       	mov    $0x4033b8,%esi
  401a19:	bf 01 00 00 00       	mov    $0x1,%edi
  401a1e:	b8 00 00 00 00       	mov    $0x0,%eax
  401a23:	e8 88 f3 ff ff       	callq  400db0 <__printf_chk@plt>
  401a28:	bf 03 00 00 00       	mov    $0x3,%edi
  401a2d:	e8 fe 04 00 00       	callq  401f30 <fail>
  401a32:	bf 00 00 00 00       	mov    $0x0,%edi
  401a37:	e8 c4 f3 ff ff       	callq  400e00 <exit@plt>

0000000000401a3c <test>:
  401a3c:	48 83 ec 08          	sub    $0x8,%rsp
  401a40:	b8 00 00 00 00       	mov    $0x0,%eax
  401a45:	e8 31 fe ff ff       	callq  40187b <getbuf>
  401a4a:	89 c2                	mov    %eax,%edx
  401a4c:	be e0 33 40 00       	mov    $0x4033e0,%esi
  401a51:	bf 01 00 00 00       	mov    $0x1,%edi
  401a56:	b8 00 00 00 00       	mov    $0x0,%eax
  401a5b:	e8 50 f3 ff ff       	callq  400db0 <__printf_chk@plt>
  401a60:	48 83 c4 08          	add    $0x8,%rsp
  401a64:	c3                   	retq   

0000000000401a65 <start_farm>:
  401a65:	b8 01 00 00 00       	mov    $0x1,%eax
  401a6a:	c3                   	retq   

0000000000401a6b <addval_240>:
  401a6b:	8d 87 48 89 c7 92    	lea    -0x6d3876b8(%rdi),%eax
  401a71:	c3                   	retq   

0000000000401a72 <getval_207>:
  401a72:	b8 48 89 c7 c3       	mov    $0xc3c78948,%eax
  401a77:	c3                   	retq   

0000000000401a78 <setval_353>:
  401a78:	c7 07 58 90 90 90    	movl   $0x90909058,(%rdi)
  401a7e:	c3                   	retq   

0000000000401a7f <addval_255>:
  401a7f:	8d 87 85 a7 c7 58    	lea    0x58c7a785(%rdi),%eax
  401a85:	c3                   	retq   

0000000000401a86 <getval_452>:
  401a86:	b8 48 90 c3 9e       	mov    $0x9ec39048,%eax
  401a8b:	c3                   	retq   

0000000000401a8c <addval_410>:
  401a8c:	8d 87 58 92 90 90    	lea    -0x6f6f6da8(%rdi),%eax
  401a92:	c3                   	retq   

0000000000401a93 <setval_134>:
  401a93:	c7 07 48 89 c7 90    	movl   $0x90c78948,(%rdi)
  401a99:	c3                   	retq   

0000000000401a9a <setval_403>:
  401a9a:	c7 07 48 89 c7 c2    	movl   $0xc2c78948,(%rdi)
  401aa0:	c3                   	retq   

0000000000401aa1 <mid_farm>:
  401aa1:	b8 01 00 00 00       	mov    $0x1,%eax
  401aa6:	c3                   	retq   

0000000000401aa7 <add_xy>:
  401aa7:	48 8d 04 37          	lea    (%rdi,%rsi,1),%rax
  401aab:	c3                   	retq   

0000000000401aac <addval_363>:
  401aac:	8d 87 09 ca c3 d4    	lea    -0x2b3c35f7(%rdi),%eax
  401ab2:	c3                   	retq   

0000000000401ab3 <addval_245>:
  401ab3:	8d 87 45 89 ca 92    	lea    -0x6d3576bb(%rdi),%eax
  401ab9:	c3                   	retq   

0000000000401aba <addval_421>:
  401aba:	8d 87 b8 97 8b d6    	lea    -0x29746848(%rdi),%eax
  401ac0:	c3                   	retq   

0000000000401ac1 <getval_464>:
  401ac1:	b8 30 d3 89 c1       	mov    $0xc189d330,%eax
  401ac6:	c3                   	retq   

0000000000401ac7 <setval_118>:
  401ac7:	c7 07 48 89 e0 91    	movl   $0x91e08948,(%rdi)
  401acd:	c3                   	retq   

0000000000401ace <addval_427>:
  401ace:	8d 87 23 81 c1 90    	lea    -0x6f3e7edd(%rdi),%eax
  401ad4:	c3                   	retq   

0000000000401ad5 <getval_432>:
  401ad5:	b8 89 c1 94 c0       	mov    $0xc094c189,%eax
  401ada:	c3                   	retq   

0000000000401adb <setval_125>:
  401adb:	c7 07 89 ca 18 d2    	movl   $0xd218ca89,(%rdi)
  401ae1:	c3                   	retq   

0000000000401ae2 <getval_429>:
  401ae2:	b8 89 ca 84 db       	mov    $0xdb84ca89,%eax
  401ae7:	c3                   	retq   

0000000000401ae8 <setval_121>:
  401ae8:	c7 07 89 d6 92 90    	movl   $0x9092d689,(%rdi)
  401aee:	c3                   	retq   

0000000000401aef <setval_249>:
  401aef:	c7 07 89 ca 08 d2    	movl   $0xd208ca89,(%rdi)
  401af5:	c3                   	retq   

0000000000401af6 <addval_388>:
  401af6:	8d 87 48 09 e0 c3    	lea    -0x3c1ff6b8(%rdi),%eax
  401afc:	c3                   	retq   

0000000000401afd <getval_390>:
  401afd:	b8 5d 40 89 e0       	mov    $0xe089405d,%eax
  401b02:	c3                   	retq   

0000000000401b03 <getval_369>:
  401b03:	b8 8b d6 08 c0       	mov    $0xc008d68b,%eax
  401b08:	c3                   	retq   

0000000000401b09 <setval_309>:
  401b09:	c7 07 a9 ca 90 90    	movl   $0x9090caa9,(%rdi)
  401b0f:	c3                   	retq   

0000000000401b10 <getval_482>:
  401b10:	b8 48 89 e0 92       	mov    $0x92e08948,%eax
  401b15:	c3                   	retq   

0000000000401b16 <setval_227>:
  401b16:	c7 07 49 89 e0 90    	movl   $0x90e08949,(%rdi)
  401b1c:	c3                   	retq   

0000000000401b1d <setval_122>:
  401b1d:	c7 07 61 89 d6 c1    	movl   $0xc1d68961,(%rdi)
  401b23:	c3                   	retq   

0000000000401b24 <getval_112>:
  401b24:	b8 89 d6 78 c0       	mov    $0xc078d689,%eax
  401b29:	c3                   	retq   

0000000000401b2a <addval_499>:
  401b2a:	8d 87 86 89 c1 c3    	lea    -0x3c3e767a(%rdi),%eax
  401b30:	c3                   	retq   

0000000000401b31 <setval_348>:
  401b31:	c7 07 09 ca 08 c9    	movl   $0xc908ca09,(%rdi)
  401b37:	c3                   	retq   

0000000000401b38 <setval_290>:
  401b38:	c7 07 89 d6 08 c9    	movl   $0xc908d689,(%rdi)
  401b3e:	c3                   	retq   

0000000000401b3f <setval_446>:
  401b3f:	c7 07 8d c1 38 c9    	movl   $0xc938c18d,(%rdi)
  401b45:	c3                   	retq   

0000000000401b46 <getval_138>:
  401b46:	b8 8d c1 90 90       	mov    $0x9090c18d,%eax
  401b4b:	c3                   	retq   

0000000000401b4c <addval_395>:
  401b4c:	8d 87 48 89 e0 c3    	lea    -0x3c1f76b8(%rdi),%eax
  401b52:	c3                   	retq   

0000000000401b53 <getval_166>:
  401b53:	b8 89 c1 28 db       	mov    $0xdb28c189,%eax
  401b58:	c3                   	retq   

0000000000401b59 <setval_460>:
  401b59:	c7 07 4f 3f 81 d6    	movl   $0xd6813f4f,(%rdi)
  401b5f:	c3                   	retq   

0000000000401b60 <setval_173>:
  401b60:	c7 07 c9 ca 20 c0    	movl   $0xc020cac9,(%rdi)
  401b66:	c3                   	retq   

0000000000401b67 <setval_356>:
  401b67:	c7 07 88 c1 08 c0    	movl   $0xc008c188,(%rdi)
  401b6d:	c3                   	retq   

0000000000401b6e <setval_181>:
  401b6e:	c7 07 4a 89 e0 c3    	movl   $0xc3e0894a,(%rdi)
  401b74:	c3                   	retq   

0000000000401b75 <addval_129>:
  401b75:	8d 87 4c 0c 89 d6    	lea    -0x2976f3b4(%rdi),%eax
  401b7b:	c3                   	retq   

0000000000401b7c <addval_107>:
  401b7c:	8d 87 48 89 e0 c3    	lea    -0x3c1f76b8(%rdi),%eax
  401b82:	c3                   	retq   

0000000000401b83 <end_farm>:
  401b83:	b8 01 00 00 00       	mov    $0x1,%eax
  401b88:	c3                   	retq   

0000000000401b89 <save_char>:
  401b89:	8b 05 95 45 20 00    	mov    0x204595(%rip),%eax        # 606124 <gets_cnt>
  401b8f:	3d ff 03 00 00       	cmp    $0x3ff,%eax
  401b94:	7f 49                	jg     401bdf <save_char+0x56>
  401b96:	8d 14 40             	lea    (%rax,%rax,2),%edx
  401b99:	89 f9                	mov    %edi,%ecx
  401b9b:	c0 e9 04             	shr    $0x4,%cl
  401b9e:	83 e1 0f             	and    $0xf,%ecx
  401ba1:	0f b6 b1 00 37 40 00 	movzbl 0x403700(%rcx),%esi
  401ba8:	48 63 ca             	movslq %edx,%rcx
  401bab:	40 88 b1 20 55 60 00 	mov    %sil,0x605520(%rcx)
  401bb2:	8d 4a 01             	lea    0x1(%rdx),%ecx
  401bb5:	83 e7 0f             	and    $0xf,%edi
  401bb8:	0f b6 b7 00 37 40 00 	movzbl 0x403700(%rdi),%esi
  401bbf:	48 63 c9             	movslq %ecx,%rcx
  401bc2:	40 88 b1 20 55 60 00 	mov    %sil,0x605520(%rcx)
  401bc9:	83 c2 02             	add    $0x2,%edx
  401bcc:	48 63 d2             	movslq %edx,%rdx
  401bcf:	c6 82 20 55 60 00 20 	movb   $0x20,0x605520(%rdx)
  401bd6:	83 c0 01             	add    $0x1,%eax
  401bd9:	89 05 45 45 20 00    	mov    %eax,0x204545(%rip)        # 606124 <gets_cnt>
  401bdf:	f3 c3                	repz retq 

0000000000401be1 <save_term>:
  401be1:	8b 05 3d 45 20 00    	mov    0x20453d(%rip),%eax        # 606124 <gets_cnt>
  401be7:	8d 04 40             	lea    (%rax,%rax,2),%eax
  401bea:	48 98                	cltq   
  401bec:	c6 80 20 55 60 00 00 	movb   $0x0,0x605520(%rax)
  401bf3:	c3                   	retq   

0000000000401bf4 <check_fail>:
  401bf4:	48 83 ec 08          	sub    $0x8,%rsp
  401bf8:	0f be 15 29 45 20 00 	movsbl 0x204529(%rip),%edx        # 606128 <target_prefix>
  401bff:	41 b8 20 55 60 00    	mov    $0x605520,%r8d
  401c05:	8b 0d ed 38 20 00    	mov    0x2038ed(%rip),%ecx        # 6054f8 <check_level>
  401c0b:	be 03 34 40 00       	mov    $0x403403,%esi
  401c10:	bf 01 00 00 00       	mov    $0x1,%edi
  401c15:	b8 00 00 00 00       	mov    $0x0,%eax
  401c1a:	e8 91 f1 ff ff       	callq  400db0 <__printf_chk@plt>
  401c1f:	bf 01 00 00 00       	mov    $0x1,%edi
  401c24:	e8 d7 f1 ff ff       	callq  400e00 <exit@plt>

0000000000401c29 <Gets>:
  401c29:	41 54                	push   %r12
  401c2b:	55                   	push   %rbp
  401c2c:	53                   	push   %rbx
  401c2d:	49 89 fc             	mov    %rdi,%r12
  401c30:	c7 05 ea 44 20 00 00 	movl   $0x0,0x2044ea(%rip)        # 606124 <gets_cnt>
  401c37:	00 00 00 
  401c3a:	48 89 fb             	mov    %rdi,%rbx
  401c3d:	eb 11                	jmp    401c50 <Gets+0x27>
  401c3f:	48 8d 6b 01          	lea    0x1(%rbx),%rbp
  401c43:	88 03                	mov    %al,(%rbx)
  401c45:	0f b6 f8             	movzbl %al,%edi
  401c48:	e8 3c ff ff ff       	callq  401b89 <save_char>
  401c4d:	48 89 eb             	mov    %rbp,%rbx
  401c50:	48 8b 3d 99 38 20 00 	mov    0x203899(%rip),%rdi        # 6054f0 <infile>
  401c57:	e8 24 f1 ff ff       	callq  400d80 <_IO_getc@plt>
  401c5c:	83 f8 ff             	cmp    $0xffffffff,%eax
  401c5f:	74 05                	je     401c66 <Gets+0x3d>
  401c61:	83 f8 0a             	cmp    $0xa,%eax
  401c64:	75 d9                	jne    401c3f <Gets+0x16>
  401c66:	c6 03 00             	movb   $0x0,(%rbx)
  401c69:	b8 00 00 00 00       	mov    $0x0,%eax
  401c6e:	e8 6e ff ff ff       	callq  401be1 <save_term>
  401c73:	4c 89 e0             	mov    %r12,%rax
  401c76:	5b                   	pop    %rbx
  401c77:	5d                   	pop    %rbp
  401c78:	41 5c                	pop    %r12
  401c7a:	c3                   	retq   

0000000000401c7b <notify_server>:
  401c7b:	53                   	push   %rbx
  401c7c:	48 81 ec 10 40 00 00 	sub    $0x4010,%rsp
  401c83:	64 48 8b 04 25 28 00 	mov    %fs:0x28,%rax
  401c8a:	00 00 
  401c8c:	48 89 84 24 08 40 00 	mov    %rax,0x4008(%rsp)
  401c93:	00 
  401c94:	31 c0                	xor    %eax,%eax
  401c96:	83 3d 6b 38 20 00 00 	cmpl   $0x0,0x20386b(%rip)        # 605508 <is_checker>
  401c9d:	0f 85 aa 01 00 00    	jne    401e4d <notify_server+0x1d2>
  401ca3:	89 fb                	mov    %edi,%ebx
  401ca5:	8b 05 79 44 20 00    	mov    0x204479(%rip),%eax        # 606124 <gets_cnt>
  401cab:	83 c0 64             	add    $0x64,%eax
  401cae:	3d 00 20 00 00       	cmp    $0x2000,%eax
  401cb3:	7e 1e                	jle    401cd3 <notify_server+0x58>
  401cb5:	be 38 35 40 00       	mov    $0x403538,%esi
  401cba:	bf 01 00 00 00       	mov    $0x1,%edi
  401cbf:	b8 00 00 00 00       	mov    $0x0,%eax
  401cc4:	e8 e7 f0 ff ff       	callq  400db0 <__printf_chk@plt>
  401cc9:	bf 01 00 00 00       	mov    $0x1,%edi
  401cce:	e8 2d f1 ff ff       	callq  400e00 <exit@plt>
  401cd3:	0f be 05 4e 44 20 00 	movsbl 0x20444e(%rip),%eax        # 606128 <target_prefix>
  401cda:	83 3d a7 37 20 00 00 	cmpl   $0x0,0x2037a7(%rip)        # 605488 <notify>
  401ce1:	74 08                	je     401ceb <notify_server+0x70>
  401ce3:	8b 15 17 38 20 00    	mov    0x203817(%rip),%edx        # 605500 <authkey>
  401ce9:	eb 05                	jmp    401cf0 <notify_server+0x75>
  401ceb:	ba ff ff ff ff       	mov    $0xffffffff,%edx
  401cf0:	85 db                	test   %ebx,%ebx
  401cf2:	74 08                	je     401cfc <notify_server+0x81>
  401cf4:	41 b9 19 34 40 00    	mov    $0x403419,%r9d
  401cfa:	eb 06                	jmp    401d02 <notify_server+0x87>
  401cfc:	41 b9 1e 34 40 00    	mov    $0x40341e,%r9d
  401d02:	68 20 55 60 00       	pushq  $0x605520
  401d07:	56                   	push   %rsi
  401d08:	50                   	push   %rax
  401d09:	52                   	push   %rdx
  401d0a:	44 8b 05 37 34 20 00 	mov    0x203437(%rip),%r8d        # 605148 <target_id>
  401d11:	b9 23 34 40 00       	mov    $0x403423,%ecx
  401d16:	ba 00 20 00 00       	mov    $0x2000,%edx
  401d1b:	be 01 00 00 00       	mov    $0x1,%esi
  401d20:	48 8d 7c 24 20       	lea    0x20(%rsp),%rdi
  401d25:	b8 00 00 00 00       	mov    $0x0,%eax
  401d2a:	e8 01 f1 ff ff       	callq  400e30 <__sprintf_chk@plt>
  401d2f:	48 83 c4 20          	add    $0x20,%rsp
  401d33:	83 3d 4e 37 20 00 00 	cmpl   $0x0,0x20374e(%rip)        # 605488 <notify>
  401d3a:	0f 84 81 00 00 00    	je     401dc1 <notify_server+0x146>
  401d40:	85 db                	test   %ebx,%ebx
  401d42:	74 6e                	je     401db2 <notify_server+0x137>
  401d44:	4c 8d 8c 24 00 20 00 	lea    0x2000(%rsp),%r9
  401d4b:	00 
  401d4c:	41 b8 00 00 00 00    	mov    $0x0,%r8d
  401d52:	48 89 e1             	mov    %rsp,%rcx
  401d55:	48 8b 15 f4 33 20 00 	mov    0x2033f4(%rip),%rdx        # 605150 <lab>
  401d5c:	48 8b 35 f5 33 20 00 	mov    0x2033f5(%rip),%rsi        # 605158 <course>
  401d63:	48 8b 3d d6 33 20 00 	mov    0x2033d6(%rip),%rdi        # 605140 <user_id>
  401d6a:	e8 ef 10 00 00       	callq  402e5e <driver_post>
  401d6f:	85 c0                	test   %eax,%eax
  401d71:	79 26                	jns    401d99 <notify_server+0x11e>
  401d73:	48 8d 94 24 00 20 00 	lea    0x2000(%rsp),%rdx
  401d7a:	00 
  401d7b:	be 3f 34 40 00       	mov    $0x40343f,%esi
  401d80:	bf 01 00 00 00       	mov    $0x1,%edi
  401d85:	b8 00 00 00 00       	mov    $0x0,%eax
  401d8a:	e8 21 f0 ff ff       	callq  400db0 <__printf_chk@plt>
  401d8f:	bf 01 00 00 00       	mov    $0x1,%edi
  401d94:	e8 67 f0 ff ff       	callq  400e00 <exit@plt>
  401d99:	bf 68 35 40 00       	mov    $0x403568,%edi
  401d9e:	e8 dd ee ff ff       	callq  400c80 <puts@plt>
  401da3:	bf 4b 34 40 00       	mov    $0x40344b,%edi
  401da8:	e8 d3 ee ff ff       	callq  400c80 <puts@plt>
  401dad:	e9 9b 00 00 00       	jmpq   401e4d <notify_server+0x1d2>
  401db2:	bf 55 34 40 00       	mov    $0x403455,%edi
  401db7:	e8 c4 ee ff ff       	callq  400c80 <puts@plt>
  401dbc:	e9 8c 00 00 00       	jmpq   401e4d <notify_server+0x1d2>
  401dc1:	85 db                	test   %ebx,%ebx
  401dc3:	74 07                	je     401dcc <notify_server+0x151>
  401dc5:	ba 19 34 40 00       	mov    $0x403419,%edx
  401dca:	eb 05                	jmp    401dd1 <notify_server+0x156>
  401dcc:	ba 1e 34 40 00       	mov    $0x40341e,%edx
  401dd1:	be a0 35 40 00       	mov    $0x4035a0,%esi
  401dd6:	bf 01 00 00 00       	mov    $0x1,%edi
  401ddb:	b8 00 00 00 00       	mov    $0x0,%eax
  401de0:	e8 cb ef ff ff       	callq  400db0 <__printf_chk@plt>
  401de5:	48 8b 15 54 33 20 00 	mov    0x203354(%rip),%rdx        # 605140 <user_id>
  401dec:	be 5c 34 40 00       	mov    $0x40345c,%esi
  401df1:	bf 01 00 00 00       	mov    $0x1,%edi
  401df6:	b8 00 00 00 00       	mov    $0x0,%eax
  401dfb:	e8 b0 ef ff ff       	callq  400db0 <__printf_chk@plt>
  401e00:	48 8b 15 51 33 20 00 	mov    0x203351(%rip),%rdx        # 605158 <course>
  401e07:	be 69 34 40 00       	mov    $0x403469,%esi
  401e0c:	bf 01 00 00 00       	mov    $0x1,%edi
  401e11:	b8 00 00 00 00       	mov    $0x0,%eax
  401e16:	e8 95 ef ff ff       	callq  400db0 <__printf_chk@plt>
  401e1b:	48 8b 15 2e 33 20 00 	mov    0x20332e(%rip),%rdx        # 605150 <lab>
  401e22:	be 75 34 40 00       	mov    $0x403475,%esi
  401e27:	bf 01 00 00 00       	mov    $0x1,%edi
  401e2c:	b8 00 00 00 00       	mov    $0x0,%eax
  401e31:	e8 7a ef ff ff       	callq  400db0 <__printf_chk@plt>
  401e36:	48 89 e2             	mov    %rsp,%rdx
  401e39:	be 7e 34 40 00       	mov    $0x40347e,%esi
  401e3e:	bf 01 00 00 00       	mov    $0x1,%edi
  401e43:	b8 00 00 00 00       	mov    $0x0,%eax
  401e48:	e8 63 ef ff ff       	callq  400db0 <__printf_chk@plt>
  401e4d:	48 8b 84 24 08 40 00 	mov    0x4008(%rsp),%rax
  401e54:	00 
  401e55:	64 48 33 04 25 28 00 	xor    %fs:0x28,%rax
  401e5c:	00 00 
  401e5e:	74 05                	je     401e65 <notify_server+0x1ea>
  401e60:	e8 3b ee ff ff       	callq  400ca0 <__stack_chk_fail@plt>
  401e65:	48 81 c4 10 40 00 00 	add    $0x4010,%rsp
  401e6c:	5b                   	pop    %rbx
  401e6d:	c3                   	retq   

0000000000401e6e <validate>:
  401e6e:	53                   	push   %rbx
  401e6f:	89 fb                	mov    %edi,%ebx
  401e71:	83 3d 90 36 20 00 00 	cmpl   $0x0,0x203690(%rip)        # 605508 <is_checker>
  401e78:	74 6b                	je     401ee5 <validate+0x77>
  401e7a:	39 3d 7c 36 20 00    	cmp    %edi,0x20367c(%rip)        # 6054fc <vlevel>
  401e80:	74 14                	je     401e96 <validate+0x28>
  401e82:	bf 8a 34 40 00       	mov    $0x40348a,%edi
  401e87:	e8 f4 ed ff ff       	callq  400c80 <puts@plt>
  401e8c:	b8 00 00 00 00       	mov    $0x0,%eax
  401e91:	e8 5e fd ff ff       	callq  401bf4 <check_fail>
  401e96:	8b 15 5c 36 20 00    	mov    0x20365c(%rip),%edx        # 6054f8 <check_level>
  401e9c:	39 d7                	cmp    %edx,%edi
  401e9e:	74 20                	je     401ec0 <validate+0x52>
  401ea0:	89 f9                	mov    %edi,%ecx
  401ea2:	be c8 35 40 00       	mov    $0x4035c8,%esi
  401ea7:	bf 01 00 00 00       	mov    $0x1,%edi
  401eac:	b8 00 00 00 00       	mov    $0x0,%eax
  401eb1:	e8 fa ee ff ff       	callq  400db0 <__printf_chk@plt>
  401eb6:	b8 00 00 00 00       	mov    $0x0,%eax
  401ebb:	e8 34 fd ff ff       	callq  401bf4 <check_fail>
  401ec0:	0f be 15 61 42 20 00 	movsbl 0x204261(%rip),%edx        # 606128 <target_prefix>
  401ec7:	41 b8 20 55 60 00    	mov    $0x605520,%r8d
  401ecd:	89 f9                	mov    %edi,%ecx
  401ecf:	be a8 34 40 00       	mov    $0x4034a8,%esi
  401ed4:	bf 01 00 00 00       	mov    $0x1,%edi
  401ed9:	b8 00 00 00 00       	mov    $0x0,%eax
  401ede:	e8 cd ee ff ff       	callq  400db0 <__printf_chk@plt>
  401ee3:	eb 49                	jmp    401f2e <validate+0xc0>
  401ee5:	3b 3d 11 36 20 00    	cmp    0x203611(%rip),%edi        # 6054fc <vlevel>
  401eeb:	74 18                	je     401f05 <validate+0x97>
  401eed:	bf 8a 34 40 00       	mov    $0x40348a,%edi
  401ef2:	e8 89 ed ff ff       	callq  400c80 <puts@plt>
  401ef7:	89 de                	mov    %ebx,%esi
  401ef9:	bf 00 00 00 00       	mov    $0x0,%edi
  401efe:	e8 78 fd ff ff       	callq  401c7b <notify_server>
  401f03:	eb 29                	jmp    401f2e <validate+0xc0>
  401f05:	0f be 0d 1c 42 20 00 	movsbl 0x20421c(%rip),%ecx        # 606128 <target_prefix>
  401f0c:	89 fa                	mov    %edi,%edx
  401f0e:	be f0 35 40 00       	mov    $0x4035f0,%esi
  401f13:	bf 01 00 00 00       	mov    $0x1,%edi
  401f18:	b8 00 00 00 00       	mov    $0x0,%eax
  401f1d:	e8 8e ee ff ff       	callq  400db0 <__printf_chk@plt>
  401f22:	89 de                	mov    %ebx,%esi
  401f24:	bf 01 00 00 00       	mov    $0x1,%edi
  401f29:	e8 4d fd ff ff       	callq  401c7b <notify_server>
  401f2e:	5b                   	pop    %rbx
  401f2f:	c3                   	retq   

0000000000401f30 <fail>:
  401f30:	48 83 ec 08          	sub    $0x8,%rsp
  401f34:	83 3d cd 35 20 00 00 	cmpl   $0x0,0x2035cd(%rip)        # 605508 <is_checker>
  401f3b:	74 0a                	je     401f47 <fail+0x17>
  401f3d:	b8 00 00 00 00       	mov    $0x0,%eax
  401f42:	e8 ad fc ff ff       	callq  401bf4 <check_fail>
  401f47:	89 fe                	mov    %edi,%esi
  401f49:	bf 00 00 00 00       	mov    $0x0,%edi
  401f4e:	e8 28 fd ff ff       	callq  401c7b <notify_server>
  401f53:	48 83 c4 08          	add    $0x8,%rsp
  401f57:	c3                   	retq   

0000000000401f58 <bushandler>:
  401f58:	48 83 ec 08          	sub    $0x8,%rsp
  401f5c:	83 3d a5 35 20 00 00 	cmpl   $0x0,0x2035a5(%rip)        # 605508 <is_checker>
  401f63:	74 14                	je     401f79 <bushandler+0x21>
  401f65:	bf bd 34 40 00       	mov    $0x4034bd,%edi
  401f6a:	e8 11 ed ff ff       	callq  400c80 <puts@plt>
  401f6f:	b8 00 00 00 00       	mov    $0x0,%eax
  401f74:	e8 7b fc ff ff       	callq  401bf4 <check_fail>
  401f79:	bf 28 36 40 00       	mov    $0x403628,%edi
  401f7e:	e8 fd ec ff ff       	callq  400c80 <puts@plt>
  401f83:	bf c7 34 40 00       	mov    $0x4034c7,%edi
  401f88:	e8 f3 ec ff ff       	callq  400c80 <puts@plt>
  401f8d:	be 00 00 00 00       	mov    $0x0,%esi
  401f92:	bf 00 00 00 00       	mov    $0x0,%edi
  401f97:	e8 df fc ff ff       	callq  401c7b <notify_server>
  401f9c:	bf 01 00 00 00       	mov    $0x1,%edi
  401fa1:	e8 5a ee ff ff       	callq  400e00 <exit@plt>

0000000000401fa6 <seghandler>:
  401fa6:	48 83 ec 08          	sub    $0x8,%rsp
  401faa:	83 3d 57 35 20 00 00 	cmpl   $0x0,0x203557(%rip)        # 605508 <is_checker>
  401fb1:	74 14                	je     401fc7 <seghandler+0x21>
  401fb3:	bf dd 34 40 00       	mov    $0x4034dd,%edi
  401fb8:	e8 c3 ec ff ff       	callq  400c80 <puts@plt>
  401fbd:	b8 00 00 00 00       	mov    $0x0,%eax
  401fc2:	e8 2d fc ff ff       	callq  401bf4 <check_fail>
  401fc7:	bf 48 36 40 00       	mov    $0x403648,%edi
  401fcc:	e8 af ec ff ff       	callq  400c80 <puts@plt>
  401fd1:	bf c7 34 40 00       	mov    $0x4034c7,%edi
  401fd6:	e8 a5 ec ff ff       	callq  400c80 <puts@plt>
  401fdb:	be 00 00 00 00       	mov    $0x0,%esi
  401fe0:	bf 00 00 00 00       	mov    $0x0,%edi
  401fe5:	e8 91 fc ff ff       	callq  401c7b <notify_server>
  401fea:	bf 01 00 00 00       	mov    $0x1,%edi
  401fef:	e8 0c ee ff ff       	callq  400e00 <exit@plt>

0000000000401ff4 <illegalhandler>:
  401ff4:	48 83 ec 08          	sub    $0x8,%rsp
  401ff8:	83 3d 09 35 20 00 00 	cmpl   $0x0,0x203509(%rip)        # 605508 <is_checker>
  401fff:	74 14                	je     402015 <illegalhandler+0x21>
  402001:	bf f0 34 40 00       	mov    $0x4034f0,%edi
  402006:	e8 75 ec ff ff       	callq  400c80 <puts@plt>
  40200b:	b8 00 00 00 00       	mov    $0x0,%eax
  402010:	e8 df fb ff ff       	callq  401bf4 <check_fail>
  402015:	bf 70 36 40 00       	mov    $0x403670,%edi
  40201a:	e8 61 ec ff ff       	callq  400c80 <puts@plt>
  40201f:	bf c7 34 40 00       	mov    $0x4034c7,%edi
  402024:	e8 57 ec ff ff       	callq  400c80 <puts@plt>
  402029:	be 00 00 00 00       	mov    $0x0,%esi
  40202e:	bf 00 00 00 00       	mov    $0x0,%edi
  402033:	e8 43 fc ff ff       	callq  401c7b <notify_server>
  402038:	bf 01 00 00 00       	mov    $0x1,%edi
  40203d:	e8 be ed ff ff       	callq  400e00 <exit@plt>

0000000000402042 <sigalrmhandler>:
  402042:	48 83 ec 08          	sub    $0x8,%rsp
  402046:	83 3d bb 34 20 00 00 	cmpl   $0x0,0x2034bb(%rip)        # 605508 <is_checker>
  40204d:	74 14                	je     402063 <sigalrmhandler+0x21>
  40204f:	bf 04 35 40 00       	mov    $0x403504,%edi
  402054:	e8 27 ec ff ff       	callq  400c80 <puts@plt>
  402059:	b8 00 00 00 00       	mov    $0x0,%eax
  40205e:	e8 91 fb ff ff       	callq  401bf4 <check_fail>
  402063:	ba 05 00 00 00       	mov    $0x5,%edx
  402068:	be a0 36 40 00       	mov    $0x4036a0,%esi
  40206d:	bf 01 00 00 00       	mov    $0x1,%edi
  402072:	b8 00 00 00 00       	mov    $0x0,%eax
  402077:	e8 34 ed ff ff       	callq  400db0 <__printf_chk@plt>
  40207c:	be 00 00 00 00       	mov    $0x0,%esi
  402081:	bf 00 00 00 00       	mov    $0x0,%edi
  402086:	e8 f0 fb ff ff       	callq  401c7b <notify_server>
  40208b:	bf 01 00 00 00       	mov    $0x1,%edi
  402090:	e8 6b ed ff ff       	callq  400e00 <exit@plt>

0000000000402095 <launch>:
  402095:	55                   	push   %rbp
  402096:	48 89 e5             	mov    %rsp,%rbp
  402099:	48 83 ec 10          	sub    $0x10,%rsp
  40209d:	48 89 fa             	mov    %rdi,%rdx
  4020a0:	64 48 8b 04 25 28 00 	mov    %fs:0x28,%rax
  4020a7:	00 00 
  4020a9:	48 89 45 f8          	mov    %rax,-0x8(%rbp)
  4020ad:	31 c0                	xor    %eax,%eax
  4020af:	48 8d 47 1e          	lea    0x1e(%rdi),%rax
  4020b3:	48 83 e0 f0          	and    $0xfffffffffffffff0,%rax
  4020b7:	48 29 c4             	sub    %rax,%rsp
  4020ba:	48 8d 7c 24 0f       	lea    0xf(%rsp),%rdi
  4020bf:	48 83 e7 f0          	and    $0xfffffffffffffff0,%rdi
  4020c3:	be f4 00 00 00       	mov    $0xf4,%esi
  4020c8:	e8 f3 eb ff ff       	callq  400cc0 <memset@plt>
  4020cd:	48 8b 05 cc 33 20 00 	mov    0x2033cc(%rip),%rax        # 6054a0 <stdin@@GLIBC_2.2.5>
  4020d4:	48 39 05 15 34 20 00 	cmp    %rax,0x203415(%rip)        # 6054f0 <infile>
  4020db:	75 14                	jne    4020f1 <launch+0x5c>
  4020dd:	be 0c 35 40 00       	mov    $0x40350c,%esi
  4020e2:	bf 01 00 00 00       	mov    $0x1,%edi
  4020e7:	b8 00 00 00 00       	mov    $0x0,%eax
  4020ec:	e8 bf ec ff ff       	callq  400db0 <__printf_chk@plt>
  4020f1:	c7 05 01 34 20 00 00 	movl   $0x0,0x203401(%rip)        # 6054fc <vlevel>
  4020f8:	00 00 00 
  4020fb:	b8 00 00 00 00       	mov    $0x0,%eax
  402100:	e8 37 f9 ff ff       	callq  401a3c <test>
  402105:	83 3d fc 33 20 00 00 	cmpl   $0x0,0x2033fc(%rip)        # 605508 <is_checker>
  40210c:	74 14                	je     402122 <launch+0x8d>
  40210e:	bf 19 35 40 00       	mov    $0x403519,%edi
  402113:	e8 68 eb ff ff       	callq  400c80 <puts@plt>
  402118:	b8 00 00 00 00       	mov    $0x0,%eax
  40211d:	e8 d2 fa ff ff       	callq  401bf4 <check_fail>
  402122:	bf 24 35 40 00       	mov    $0x403524,%edi
  402127:	e8 54 eb ff ff       	callq  400c80 <puts@plt>
  40212c:	48 8b 45 f8          	mov    -0x8(%rbp),%rax
  402130:	64 48 33 04 25 28 00 	xor    %fs:0x28,%rax
  402137:	00 00 
  402139:	74 05                	je     402140 <launch+0xab>
  40213b:	e8 60 eb ff ff       	callq  400ca0 <__stack_chk_fail@plt>
  402140:	c9                   	leaveq 
  402141:	c3                   	retq   

0000000000402142 <stable_launch>:
  402142:	53                   	push   %rbx
  402143:	48 89 3d 9e 33 20 00 	mov    %rdi,0x20339e(%rip)        # 6054e8 <global_offset>
  40214a:	41 b9 00 00 00 00    	mov    $0x0,%r9d
  402150:	41 b8 00 00 00 00    	mov    $0x0,%r8d
  402156:	b9 32 01 00 00       	mov    $0x132,%ecx
  40215b:	ba 07 00 00 00       	mov    $0x7,%edx
  402160:	be 00 00 10 00       	mov    $0x100000,%esi
  402165:	bf 00 60 58 55       	mov    $0x55586000,%edi
  40216a:	e8 41 eb ff ff       	callq  400cb0 <mmap@plt>
  40216f:	48 89 c3             	mov    %rax,%rbx
  402172:	48 3d 00 60 58 55    	cmp    $0x55586000,%rax
  402178:	74 37                	je     4021b1 <stable_launch+0x6f>
  40217a:	be 00 00 10 00       	mov    $0x100000,%esi
  40217f:	48 89 c7             	mov    %rax,%rdi
  402182:	e8 19 ec ff ff       	callq  400da0 <munmap@plt>
  402187:	b9 00 60 58 55       	mov    $0x55586000,%ecx
  40218c:	ba d8 36 40 00       	mov    $0x4036d8,%edx
  402191:	be 01 00 00 00       	mov    $0x1,%esi
  402196:	48 8b 3d 23 33 20 00 	mov    0x203323(%rip),%rdi        # 6054c0 <stderr@@GLIBC_2.2.5>
  40219d:	b8 00 00 00 00       	mov    $0x0,%eax
  4021a2:	e8 79 ec ff ff       	callq  400e20 <__fprintf_chk@plt>
  4021a7:	bf 01 00 00 00       	mov    $0x1,%edi
  4021ac:	e8 4f ec ff ff       	callq  400e00 <exit@plt>
  4021b1:	48 8d 90 f8 ff 0f 00 	lea    0xffff8(%rax),%rdx
  4021b8:	48 89 15 71 3f 20 00 	mov    %rdx,0x203f71(%rip)        # 606130 <stack_top>
  4021bf:	48 89 e0             	mov    %rsp,%rax
  4021c2:	48 89 d4             	mov    %rdx,%rsp
  4021c5:	48 89 c2             	mov    %rax,%rdx
  4021c8:	48 89 15 11 33 20 00 	mov    %rdx,0x203311(%rip)        # 6054e0 <global_save_stack>
  4021cf:	48 8b 3d 12 33 20 00 	mov    0x203312(%rip),%rdi        # 6054e8 <global_offset>
  4021d6:	e8 ba fe ff ff       	callq  402095 <launch>
  4021db:	48 8b 05 fe 32 20 00 	mov    0x2032fe(%rip),%rax        # 6054e0 <global_save_stack>
  4021e2:	48 89 c4             	mov    %rax,%rsp
  4021e5:	be 00 00 10 00       	mov    $0x100000,%esi
  4021ea:	48 89 df             	mov    %rbx,%rdi
  4021ed:	e8 ae eb ff ff       	callq  400da0 <munmap@plt>
  4021f2:	5b                   	pop    %rbx
  4021f3:	c3                   	retq   

00000000004021f4 <rio_readinitb>:
  4021f4:	89 37                	mov    %esi,(%rdi)
  4021f6:	c7 47 04 00 00 00 00 	movl   $0x0,0x4(%rdi)
  4021fd:	48 8d 47 10          	lea    0x10(%rdi),%rax
  402201:	48 89 47 08          	mov    %rax,0x8(%rdi)
  402205:	c3                   	retq   

0000000000402206 <sigalrm_handler>:
  402206:	48 83 ec 08          	sub    $0x8,%rsp
  40220a:	b9 00 00 00 00       	mov    $0x0,%ecx
  40220f:	ba 10 37 40 00       	mov    $0x403710,%edx
  402214:	be 01 00 00 00       	mov    $0x1,%esi
  402219:	48 8b 3d a0 32 20 00 	mov    0x2032a0(%rip),%rdi        # 6054c0 <stderr@@GLIBC_2.2.5>
  402220:	b8 00 00 00 00       	mov    $0x0,%eax
  402225:	e8 f6 eb ff ff       	callq  400e20 <__fprintf_chk@plt>
  40222a:	bf 01 00 00 00       	mov    $0x1,%edi
  40222f:	e8 cc eb ff ff       	callq  400e00 <exit@plt>

0000000000402234 <rio_writen>:
  402234:	41 55                	push   %r13
  402236:	41 54                	push   %r12
  402238:	55                   	push   %rbp
  402239:	53                   	push   %rbx
  40223a:	48 83 ec 08          	sub    $0x8,%rsp
  40223e:	41 89 fc             	mov    %edi,%r12d
  402241:	48 89 f5             	mov    %rsi,%rbp
  402244:	49 89 d5             	mov    %rdx,%r13
  402247:	48 89 d3             	mov    %rdx,%rbx
  40224a:	eb 28                	jmp    402274 <rio_writen+0x40>
  40224c:	48 89 da             	mov    %rbx,%rdx
  40224f:	48 89 ee             	mov    %rbp,%rsi
  402252:	44 89 e7             	mov    %r12d,%edi
  402255:	e8 36 ea ff ff       	callq  400c90 <write@plt>
  40225a:	48 85 c0             	test   %rax,%rax
  40225d:	7f 0f                	jg     40226e <rio_writen+0x3a>
  40225f:	e8 dc e9 ff ff       	callq  400c40 <__errno_location@plt>
  402264:	83 38 04             	cmpl   $0x4,(%rax)
  402267:	75 15                	jne    40227e <rio_writen+0x4a>
  402269:	b8 00 00 00 00       	mov    $0x0,%eax
  40226e:	48 29 c3             	sub    %rax,%rbx
  402271:	48 01 c5             	add    %rax,%rbp
  402274:	48 85 db             	test   %rbx,%rbx
  402277:	75 d3                	jne    40224c <rio_writen+0x18>
  402279:	4c 89 e8             	mov    %r13,%rax
  40227c:	eb 07                	jmp    402285 <rio_writen+0x51>
  40227e:	48 c7 c0 ff ff ff ff 	mov    $0xffffffffffffffff,%rax
  402285:	48 83 c4 08          	add    $0x8,%rsp
  402289:	5b                   	pop    %rbx
  40228a:	5d                   	pop    %rbp
  40228b:	41 5c                	pop    %r12
  40228d:	41 5d                	pop    %r13
  40228f:	c3                   	retq   

0000000000402290 <rio_read>:
  402290:	41 55                	push   %r13
  402292:	41 54                	push   %r12
  402294:	55                   	push   %rbp
  402295:	53                   	push   %rbx
  402296:	48 83 ec 08          	sub    $0x8,%rsp
  40229a:	48 89 fb             	mov    %rdi,%rbx
  40229d:	49 89 f5             	mov    %rsi,%r13
  4022a0:	49 89 d4             	mov    %rdx,%r12
  4022a3:	eb 2e                	jmp    4022d3 <rio_read+0x43>
  4022a5:	48 8d 6b 10          	lea    0x10(%rbx),%rbp
  4022a9:	8b 3b                	mov    (%rbx),%edi
  4022ab:	ba 00 20 00 00       	mov    $0x2000,%edx
  4022b0:	48 89 ee             	mov    %rbp,%rsi
  4022b3:	e8 38 ea ff ff       	callq  400cf0 <read@plt>
  4022b8:	89 43 04             	mov    %eax,0x4(%rbx)
  4022bb:	85 c0                	test   %eax,%eax
  4022bd:	79 0c                	jns    4022cb <rio_read+0x3b>
  4022bf:	e8 7c e9 ff ff       	callq  400c40 <__errno_location@plt>
  4022c4:	83 38 04             	cmpl   $0x4,(%rax)
  4022c7:	74 0a                	je     4022d3 <rio_read+0x43>
  4022c9:	eb 37                	jmp    402302 <rio_read+0x72>
  4022cb:	85 c0                	test   %eax,%eax
  4022cd:	74 3c                	je     40230b <rio_read+0x7b>
  4022cf:	48 89 6b 08          	mov    %rbp,0x8(%rbx)
  4022d3:	8b 6b 04             	mov    0x4(%rbx),%ebp
  4022d6:	85 ed                	test   %ebp,%ebp
  4022d8:	7e cb                	jle    4022a5 <rio_read+0x15>
  4022da:	89 e8                	mov    %ebp,%eax
  4022dc:	49 39 c4             	cmp    %rax,%r12
  4022df:	77 03                	ja     4022e4 <rio_read+0x54>
  4022e1:	44 89 e5             	mov    %r12d,%ebp
  4022e4:	4c 63 e5             	movslq %ebp,%r12
  4022e7:	48 8b 73 08          	mov    0x8(%rbx),%rsi
  4022eb:	4c 89 e2             	mov    %r12,%rdx
  4022ee:	4c 89 ef             	mov    %r13,%rdi
  4022f1:	e8 5a ea ff ff       	callq  400d50 <memcpy@plt>
  4022f6:	4c 01 63 08          	add    %r12,0x8(%rbx)
  4022fa:	29 6b 04             	sub    %ebp,0x4(%rbx)
  4022fd:	4c 89 e0             	mov    %r12,%rax
  402300:	eb 0e                	jmp    402310 <rio_read+0x80>
  402302:	48 c7 c0 ff ff ff ff 	mov    $0xffffffffffffffff,%rax
  402309:	eb 05                	jmp    402310 <rio_read+0x80>
  40230b:	b8 00 00 00 00       	mov    $0x0,%eax
  402310:	48 83 c4 08          	add    $0x8,%rsp
  402314:	5b                   	pop    %rbx
  402315:	5d                   	pop    %rbp
  402316:	41 5c                	pop    %r12
  402318:	41 5d                	pop    %r13
  40231a:	c3                   	retq   

000000000040231b <rio_readlineb>:
  40231b:	41 55                	push   %r13
  40231d:	41 54                	push   %r12
  40231f:	55                   	push   %rbp
  402320:	53                   	push   %rbx
  402321:	48 83 ec 18          	sub    $0x18,%rsp
  402325:	49 89 fd             	mov    %rdi,%r13
  402328:	48 89 f5             	mov    %rsi,%rbp
  40232b:	49 89 d4             	mov    %rdx,%r12
  40232e:	64 48 8b 04 25 28 00 	mov    %fs:0x28,%rax
  402335:	00 00 
  402337:	48 89 44 24 08       	mov    %rax,0x8(%rsp)
  40233c:	31 c0                	xor    %eax,%eax
  40233e:	bb 01 00 00 00       	mov    $0x1,%ebx
  402343:	eb 3f                	jmp    402384 <rio_readlineb+0x69>
  402345:	ba 01 00 00 00       	mov    $0x1,%edx
  40234a:	48 8d 74 24 07       	lea    0x7(%rsp),%rsi
  40234f:	4c 89 ef             	mov    %r13,%rdi
  402352:	e8 39 ff ff ff       	callq  402290 <rio_read>
  402357:	83 f8 01             	cmp    $0x1,%eax
  40235a:	75 15                	jne    402371 <rio_readlineb+0x56>
  40235c:	48 8d 45 01          	lea    0x1(%rbp),%rax
  402360:	0f b6 54 24 07       	movzbl 0x7(%rsp),%edx
  402365:	88 55 00             	mov    %dl,0x0(%rbp)
  402368:	80 7c 24 07 0a       	cmpb   $0xa,0x7(%rsp)
  40236d:	75 0e                	jne    40237d <rio_readlineb+0x62>
  40236f:	eb 1a                	jmp    40238b <rio_readlineb+0x70>
  402371:	85 c0                	test   %eax,%eax
  402373:	75 22                	jne    402397 <rio_readlineb+0x7c>
  402375:	48 83 fb 01          	cmp    $0x1,%rbx
  402379:	75 13                	jne    40238e <rio_readlineb+0x73>
  40237b:	eb 23                	jmp    4023a0 <rio_readlineb+0x85>
  40237d:	48 83 c3 01          	add    $0x1,%rbx
  402381:	48 89 c5             	mov    %rax,%rbp
  402384:	4c 39 e3             	cmp    %r12,%rbx
  402387:	72 bc                	jb     402345 <rio_readlineb+0x2a>
  402389:	eb 03                	jmp    40238e <rio_readlineb+0x73>
  40238b:	48 89 c5             	mov    %rax,%rbp
  40238e:	c6 45 00 00          	movb   $0x0,0x0(%rbp)
  402392:	48 89 d8             	mov    %rbx,%rax
  402395:	eb 0e                	jmp    4023a5 <rio_readlineb+0x8a>
  402397:	48 c7 c0 ff ff ff ff 	mov    $0xffffffffffffffff,%rax
  40239e:	eb 05                	jmp    4023a5 <rio_readlineb+0x8a>
  4023a0:	b8 00 00 00 00       	mov    $0x0,%eax
  4023a5:	48 8b 4c 24 08       	mov    0x8(%rsp),%rcx
  4023aa:	64 48 33 0c 25 28 00 	xor    %fs:0x28,%rcx
  4023b1:	00 00 
  4023b3:	74 05                	je     4023ba <rio_readlineb+0x9f>
  4023b5:	e8 e6 e8 ff ff       	callq  400ca0 <__stack_chk_fail@plt>
  4023ba:	48 83 c4 18          	add    $0x18,%rsp
  4023be:	5b                   	pop    %rbx
  4023bf:	5d                   	pop    %rbp
  4023c0:	41 5c                	pop    %r12
  4023c2:	41 5d                	pop    %r13
  4023c4:	c3                   	retq   

00000000004023c5 <urlencode>:
  4023c5:	41 54                	push   %r12
  4023c7:	55                   	push   %rbp
  4023c8:	53                   	push   %rbx
  4023c9:	48 83 ec 10          	sub    $0x10,%rsp
  4023cd:	48 89 fb             	mov    %rdi,%rbx
  4023d0:	48 89 f5             	mov    %rsi,%rbp
  4023d3:	64 48 8b 04 25 28 00 	mov    %fs:0x28,%rax
  4023da:	00 00 
  4023dc:	48 89 44 24 08       	mov    %rax,0x8(%rsp)
  4023e1:	31 c0                	xor    %eax,%eax
  4023e3:	48 c7 c1 ff ff ff ff 	mov    $0xffffffffffffffff,%rcx
  4023ea:	f2 ae                	repnz scas %es:(%rdi),%al
  4023ec:	48 f7 d1             	not    %rcx
  4023ef:	8d 41 ff             	lea    -0x1(%rcx),%eax
  4023f2:	e9 aa 00 00 00       	jmpq   4024a1 <urlencode+0xdc>
  4023f7:	44 0f b6 03          	movzbl (%rbx),%r8d
  4023fb:	41 80 f8 2a          	cmp    $0x2a,%r8b
  4023ff:	0f 94 c2             	sete   %dl
  402402:	41 80 f8 2d          	cmp    $0x2d,%r8b
  402406:	0f 94 c0             	sete   %al
  402409:	08 c2                	or     %al,%dl
  40240b:	75 24                	jne    402431 <urlencode+0x6c>
  40240d:	41 80 f8 2e          	cmp    $0x2e,%r8b
  402411:	74 1e                	je     402431 <urlencode+0x6c>
  402413:	41 80 f8 5f          	cmp    $0x5f,%r8b
  402417:	74 18                	je     402431 <urlencode+0x6c>
  402419:	41 8d 40 d0          	lea    -0x30(%r8),%eax
  40241d:	3c 09                	cmp    $0x9,%al
  40241f:	76 10                	jbe    402431 <urlencode+0x6c>
  402421:	41 8d 40 bf          	lea    -0x41(%r8),%eax
  402425:	3c 19                	cmp    $0x19,%al
  402427:	76 08                	jbe    402431 <urlencode+0x6c>
  402429:	41 8d 40 9f          	lea    -0x61(%r8),%eax
  40242d:	3c 19                	cmp    $0x19,%al
  40242f:	77 0a                	ja     40243b <urlencode+0x76>
  402431:	44 88 45 00          	mov    %r8b,0x0(%rbp)
  402435:	48 8d 6d 01          	lea    0x1(%rbp),%rbp
  402439:	eb 5f                	jmp    40249a <urlencode+0xd5>
  40243b:	41 80 f8 20          	cmp    $0x20,%r8b
  40243f:	75 0a                	jne    40244b <urlencode+0x86>
  402441:	c6 45 00 2b          	movb   $0x2b,0x0(%rbp)
  402445:	48 8d 6d 01          	lea    0x1(%rbp),%rbp
  402449:	eb 4f                	jmp    40249a <urlencode+0xd5>
  40244b:	41 8d 40 e0          	lea    -0x20(%r8),%eax
  40244f:	3c 5f                	cmp    $0x5f,%al
  402451:	0f 96 c2             	setbe  %dl
  402454:	41 80 f8 09          	cmp    $0x9,%r8b
  402458:	0f 94 c0             	sete   %al
  40245b:	08 c2                	or     %al,%dl
  40245d:	74 50                	je     4024af <urlencode+0xea>
  40245f:	45 0f b6 c0          	movzbl %r8b,%r8d
  402463:	b9 a8 37 40 00       	mov    $0x4037a8,%ecx
  402468:	ba 08 00 00 00       	mov    $0x8,%edx
  40246d:	be 01 00 00 00       	mov    $0x1,%esi
  402472:	48 89 e7             	mov    %rsp,%rdi
  402475:	b8 00 00 00 00       	mov    $0x0,%eax
  40247a:	e8 b1 e9 ff ff       	callq  400e30 <__sprintf_chk@plt>
  40247f:	0f b6 04 24          	movzbl (%rsp),%eax
  402483:	88 45 00             	mov    %al,0x0(%rbp)
  402486:	0f b6 44 24 01       	movzbl 0x1(%rsp),%eax
  40248b:	88 45 01             	mov    %al,0x1(%rbp)
  40248e:	0f b6 44 24 02       	movzbl 0x2(%rsp),%eax
  402493:	88 45 02             	mov    %al,0x2(%rbp)
  402496:	48 8d 6d 03          	lea    0x3(%rbp),%rbp
  40249a:	48 83 c3 01          	add    $0x1,%rbx
  40249e:	44 89 e0             	mov    %r12d,%eax
  4024a1:	44 8d 60 ff          	lea    -0x1(%rax),%r12d
  4024a5:	85 c0                	test   %eax,%eax
  4024a7:	0f 85 4a ff ff ff    	jne    4023f7 <urlencode+0x32>
  4024ad:	eb 05                	jmp    4024b4 <urlencode+0xef>
  4024af:	b8 ff ff ff ff       	mov    $0xffffffff,%eax
  4024b4:	48 8b 74 24 08       	mov    0x8(%rsp),%rsi
  4024b9:	64 48 33 34 25 28 00 	xor    %fs:0x28,%rsi
  4024c0:	00 00 
  4024c2:	74 05                	je     4024c9 <urlencode+0x104>
  4024c4:	e8 d7 e7 ff ff       	callq  400ca0 <__stack_chk_fail@plt>
  4024c9:	48 83 c4 10          	add    $0x10,%rsp
  4024cd:	5b                   	pop    %rbx
  4024ce:	5d                   	pop    %rbp
  4024cf:	41 5c                	pop    %r12
  4024d1:	c3                   	retq   

00000000004024d2 <submitr>:
  4024d2:	41 57                	push   %r15
  4024d4:	41 56                	push   %r14
  4024d6:	41 55                	push   %r13
  4024d8:	41 54                	push   %r12
  4024da:	55                   	push   %rbp
  4024db:	53                   	push   %rbx
  4024dc:	48 81 ec 58 a0 00 00 	sub    $0xa058,%rsp
  4024e3:	49 89 fc             	mov    %rdi,%r12
  4024e6:	89 74 24 04          	mov    %esi,0x4(%rsp)
  4024ea:	49 89 d7             	mov    %rdx,%r15
  4024ed:	49 89 ce             	mov    %rcx,%r14
  4024f0:	4c 89 44 24 08       	mov    %r8,0x8(%rsp)
  4024f5:	4d 89 cd             	mov    %r9,%r13
  4024f8:	48 8b 9c 24 90 a0 00 	mov    0xa090(%rsp),%rbx
  4024ff:	00 
  402500:	64 48 8b 04 25 28 00 	mov    %fs:0x28,%rax
  402507:	00 00 
  402509:	48 89 84 24 48 a0 00 	mov    %rax,0xa048(%rsp)
  402510:	00 
  402511:	31 c0                	xor    %eax,%eax
  402513:	c7 44 24 1c 00 00 00 	movl   $0x0,0x1c(%rsp)
  40251a:	00 
  40251b:	ba 00 00 00 00       	mov    $0x0,%edx
  402520:	be 01 00 00 00       	mov    $0x1,%esi
  402525:	bf 02 00 00 00       	mov    $0x2,%edi
  40252a:	e8 11 e9 ff ff       	callq  400e40 <socket@plt>
  40252f:	85 c0                	test   %eax,%eax
  402531:	79 4e                	jns    402581 <submitr+0xaf>
  402533:	48 b8 45 72 72 6f 72 	movabs $0x43203a726f727245,%rax
  40253a:	3a 20 43 
  40253d:	48 89 03             	mov    %rax,(%rbx)
  402540:	48 b8 6c 69 65 6e 74 	movabs $0x6e7520746e65696c,%rax
  402547:	20 75 6e 
  40254a:	48 89 43 08          	mov    %rax,0x8(%rbx)
  40254e:	48 b8 61 62 6c 65 20 	movabs $0x206f7420656c6261,%rax
  402555:	74 6f 20 
  402558:	48 89 43 10          	mov    %rax,0x10(%rbx)
  40255c:	48 b8 63 72 65 61 74 	movabs $0x7320657461657263,%rax
  402563:	65 20 73 
  402566:	48 89 43 18          	mov    %rax,0x18(%rbx)
  40256a:	c7 43 20 6f 63 6b 65 	movl   $0x656b636f,0x20(%rbx)
  402571:	66 c7 43 24 74 00    	movw   $0x74,0x24(%rbx)
  402577:	b8 ff ff ff ff       	mov    $0xffffffff,%eax
  40257c:	e9 97 06 00 00       	jmpq   402c18 <submitr+0x746>
  402581:	89 c5                	mov    %eax,%ebp
  402583:	4c 89 e7             	mov    %r12,%rdi
  402586:	e8 95 e7 ff ff       	callq  400d20 <gethostbyname@plt>
  40258b:	48 85 c0             	test   %rax,%rax
  40258e:	75 67                	jne    4025f7 <submitr+0x125>
  402590:	48 b8 45 72 72 6f 72 	movabs $0x44203a726f727245,%rax
  402597:	3a 20 44 
  40259a:	48 89 03             	mov    %rax,(%rbx)
  40259d:	48 b8 4e 53 20 69 73 	movabs $0x6e7520736920534e,%rax
  4025a4:	20 75 6e 
  4025a7:	48 89 43 08          	mov    %rax,0x8(%rbx)
  4025ab:	48 b8 61 62 6c 65 20 	movabs $0x206f7420656c6261,%rax
  4025b2:	74 6f 20 
  4025b5:	48 89 43 10          	mov    %rax,0x10(%rbx)
  4025b9:	48 b8 72 65 73 6f 6c 	movabs $0x2065766c6f736572,%rax
  4025c0:	76 65 20 
  4025c3:	48 89 43 18          	mov    %rax,0x18(%rbx)
  4025c7:	48 b8 73 65 72 76 65 	movabs $0x6120726576726573,%rax
  4025ce:	72 20 61 
  4025d1:	48 89 43 20          	mov    %rax,0x20(%rbx)
  4025d5:	c7 43 28 64 64 72 65 	movl   $0x65726464,0x28(%rbx)
  4025dc:	66 c7 43 2c 73 73    	movw   $0x7373,0x2c(%rbx)
  4025e2:	c6 43 2e 00          	movb   $0x0,0x2e(%rbx)
  4025e6:	89 ef                	mov    %ebp,%edi
  4025e8:	e8 f3 e6 ff ff       	callq  400ce0 <close@plt>
  4025ed:	b8 ff ff ff ff       	mov    $0xffffffff,%eax
  4025f2:	e9 21 06 00 00       	jmpq   402c18 <submitr+0x746>
  4025f7:	48 c7 44 24 20 00 00 	movq   $0x0,0x20(%rsp)
  4025fe:	00 00 
  402600:	48 c7 44 24 28 00 00 	movq   $0x0,0x28(%rsp)
  402607:	00 00 
  402609:	66 c7 44 24 20 02 00 	movw   $0x2,0x20(%rsp)
  402610:	48 63 50 14          	movslq 0x14(%rax),%rdx
  402614:	48 8b 40 18          	mov    0x18(%rax),%rax
  402618:	48 8b 30             	mov    (%rax),%rsi
  40261b:	48 8d 7c 24 24       	lea    0x24(%rsp),%rdi
  402620:	b9 0c 00 00 00       	mov    $0xc,%ecx
  402625:	e8 06 e7 ff ff       	callq  400d30 <__memmove_chk@plt>
  40262a:	0f b7 44 24 04       	movzwl 0x4(%rsp),%eax
  40262f:	66 c1 c8 08          	ror    $0x8,%ax
  402633:	66 89 44 24 22       	mov    %ax,0x22(%rsp)
  402638:	ba 10 00 00 00       	mov    $0x10,%edx
  40263d:	48 8d 74 24 20       	lea    0x20(%rsp),%rsi
  402642:	89 ef                	mov    %ebp,%edi
  402644:	e8 c7 e7 ff ff       	callq  400e10 <connect@plt>
  402649:	85 c0                	test   %eax,%eax
  40264b:	79 59                	jns    4026a6 <submitr+0x1d4>
  40264d:	48 b8 45 72 72 6f 72 	movabs $0x55203a726f727245,%rax
  402654:	3a 20 55 
  402657:	48 89 03             	mov    %rax,(%rbx)
  40265a:	48 b8 6e 61 62 6c 65 	movabs $0x6f7420656c62616e,%rax
  402661:	20 74 6f 
  402664:	48 89 43 08          	mov    %rax,0x8(%rbx)
  402668:	48 b8 20 63 6f 6e 6e 	movabs $0x7463656e6e6f6320,%rax
  40266f:	65 63 74 
  402672:	48 89 43 10          	mov    %rax,0x10(%rbx)
  402676:	48 b8 20 74 6f 20 74 	movabs $0x20656874206f7420,%rax
  40267d:	68 65 20 
  402680:	48 89 43 18          	mov    %rax,0x18(%rbx)
  402684:	c7 43 20 73 65 72 76 	movl   $0x76726573,0x20(%rbx)
  40268b:	66 c7 43 24 65 72    	movw   $0x7265,0x24(%rbx)
  402691:	c6 43 26 00          	movb   $0x0,0x26(%rbx)
  402695:	89 ef                	mov    %ebp,%edi
  402697:	e8 44 e6 ff ff       	callq  400ce0 <close@plt>
  40269c:	b8 ff ff ff ff       	mov    $0xffffffff,%eax
  4026a1:	e9 72 05 00 00       	jmpq   402c18 <submitr+0x746>
  4026a6:	48 c7 c6 ff ff ff ff 	mov    $0xffffffffffffffff,%rsi
  4026ad:	b8 00 00 00 00       	mov    $0x0,%eax
  4026b2:	48 89 f1             	mov    %rsi,%rcx
  4026b5:	4c 89 ef             	mov    %r13,%rdi
  4026b8:	f2 ae                	repnz scas %es:(%rdi),%al
  4026ba:	48 f7 d1             	not    %rcx
  4026bd:	48 89 ca             	mov    %rcx,%rdx
  4026c0:	48 89 f1             	mov    %rsi,%rcx
  4026c3:	4c 89 ff             	mov    %r15,%rdi
  4026c6:	f2 ae                	repnz scas %es:(%rdi),%al
  4026c8:	48 f7 d1             	not    %rcx
  4026cb:	49 89 c8             	mov    %rcx,%r8
  4026ce:	48 89 f1             	mov    %rsi,%rcx
  4026d1:	4c 89 f7             	mov    %r14,%rdi
  4026d4:	f2 ae                	repnz scas %es:(%rdi),%al
  4026d6:	48 f7 d1             	not    %rcx
  4026d9:	4d 8d 44 08 fe       	lea    -0x2(%r8,%rcx,1),%r8
  4026de:	48 89 f1             	mov    %rsi,%rcx
  4026e1:	48 8b 7c 24 08       	mov    0x8(%rsp),%rdi
  4026e6:	f2 ae                	repnz scas %es:(%rdi),%al
  4026e8:	48 89 c8             	mov    %rcx,%rax
  4026eb:	48 f7 d0             	not    %rax
  4026ee:	49 8d 4c 00 ff       	lea    -0x1(%r8,%rax,1),%rcx
  4026f3:	48 8d 44 52 fd       	lea    -0x3(%rdx,%rdx,2),%rax
  4026f8:	48 8d 84 01 80 00 00 	lea    0x80(%rcx,%rax,1),%rax
  4026ff:	00 
  402700:	48 3d 00 20 00 00    	cmp    $0x2000,%rax
  402706:	76 72                	jbe    40277a <submitr+0x2a8>
  402708:	48 b8 45 72 72 6f 72 	movabs $0x52203a726f727245,%rax
  40270f:	3a 20 52 
  402712:	48 89 03             	mov    %rax,(%rbx)
  402715:	48 b8 65 73 75 6c 74 	movabs $0x747320746c757365,%rax
  40271c:	20 73 74 
  40271f:	48 89 43 08          	mov    %rax,0x8(%rbx)
  402723:	48 b8 72 69 6e 67 20 	movabs $0x6f6f7420676e6972,%rax
  40272a:	74 6f 6f 
  40272d:	48 89 43 10          	mov    %rax,0x10(%rbx)
  402731:	48 b8 20 6c 61 72 67 	movabs $0x202e656772616c20,%rax
  402738:	65 2e 20 
  40273b:	48 89 43 18          	mov    %rax,0x18(%rbx)
  40273f:	48 b8 49 6e 63 72 65 	movabs $0x6573616572636e49,%rax
  402746:	61 73 65 
  402749:	48 89 43 20          	mov    %rax,0x20(%rbx)
  40274d:	48 b8 20 53 55 42 4d 	movabs $0x5254494d42555320,%rax
  402754:	49 54 52 
  402757:	48 89 43 28          	mov    %rax,0x28(%rbx)
  40275b:	48 b8 5f 4d 41 58 42 	movabs $0x46554258414d5f,%rax
  402762:	55 46 00 
  402765:	48 89 43 30          	mov    %rax,0x30(%rbx)
  402769:	89 ef                	mov    %ebp,%edi
  40276b:	e8 70 e5 ff ff       	callq  400ce0 <close@plt>
  402770:	b8 ff ff ff ff       	mov    $0xffffffff,%eax
  402775:	e9 9e 04 00 00       	jmpq   402c18 <submitr+0x746>
  40277a:	48 8d b4 24 40 40 00 	lea    0x4040(%rsp),%rsi
  402781:	00 
  402782:	b9 00 04 00 00       	mov    $0x400,%ecx
  402787:	b8 00 00 00 00       	mov    $0x0,%eax
  40278c:	48 89 f7             	mov    %rsi,%rdi
  40278f:	f3 48 ab             	rep stos %rax,%es:(%rdi)
  402792:	4c 89 ef             	mov    %r13,%rdi
  402795:	e8 2b fc ff ff       	callq  4023c5 <urlencode>
  40279a:	85 c0                	test   %eax,%eax
  40279c:	0f 89 8a 00 00 00    	jns    40282c <submitr+0x35a>
  4027a2:	48 b8 45 72 72 6f 72 	movabs $0x52203a726f727245,%rax
  4027a9:	3a 20 52 
  4027ac:	48 89 03             	mov    %rax,(%rbx)
  4027af:	48 b8 65 73 75 6c 74 	movabs $0x747320746c757365,%rax
  4027b6:	20 73 74 
  4027b9:	48 89 43 08          	mov    %rax,0x8(%rbx)
  4027bd:	48 b8 72 69 6e 67 20 	movabs $0x6e6f6320676e6972,%rax
  4027c4:	63 6f 6e 
  4027c7:	48 89 43 10          	mov    %rax,0x10(%rbx)
  4027cb:	48 b8 74 61 69 6e 73 	movabs $0x6e6120736e696174,%rax
  4027d2:	20 61 6e 
  4027d5:	48 89 43 18          	mov    %rax,0x18(%rbx)
  4027d9:	48 b8 20 69 6c 6c 65 	movabs $0x6c6167656c6c6920,%rax
  4027e0:	67 61 6c 
  4027e3:	48 89 43 20          	mov    %rax,0x20(%rbx)
  4027e7:	48 b8 20 6f 72 20 75 	movabs $0x72706e7520726f20,%rax
  4027ee:	6e 70 72 
  4027f1:	48 89 43 28          	mov    %rax,0x28(%rbx)
  4027f5:	48 b8 69 6e 74 61 62 	movabs $0x20656c6261746e69,%rax
  4027fc:	6c 65 20 
  4027ff:	48 89 43 30          	mov    %rax,0x30(%rbx)
  402803:	48 b8 63 68 61 72 61 	movabs $0x6574636172616863,%rax
  40280a:	63 74 65 
  40280d:	48 89 43 38          	mov    %rax,0x38(%rbx)
  402811:	66 c7 43 40 72 2e    	movw   $0x2e72,0x40(%rbx)
  402817:	c6 43 42 00          	movb   $0x0,0x42(%rbx)
  40281b:	89 ef                	mov    %ebp,%edi
  40281d:	e8 be e4 ff ff       	callq  400ce0 <close@plt>
  402822:	b8 ff ff ff ff       	mov    $0xffffffff,%eax
  402827:	e9 ec 03 00 00       	jmpq   402c18 <submitr+0x746>
  40282c:	4c 8d ac 24 40 20 00 	lea    0x2040(%rsp),%r13
  402833:	00 
  402834:	41 54                	push   %r12
  402836:	48 8d 84 24 48 40 00 	lea    0x4048(%rsp),%rax
  40283d:	00 
  40283e:	50                   	push   %rax
  40283f:	4d 89 f9             	mov    %r15,%r9
  402842:	4d 89 f0             	mov    %r14,%r8
  402845:	b9 38 37 40 00       	mov    $0x403738,%ecx
  40284a:	ba 00 20 00 00       	mov    $0x2000,%edx
  40284f:	be 01 00 00 00       	mov    $0x1,%esi
  402854:	4c 89 ef             	mov    %r13,%rdi
  402857:	b8 00 00 00 00       	mov    $0x0,%eax
  40285c:	e8 cf e5 ff ff       	callq  400e30 <__sprintf_chk@plt>
  402861:	b8 00 00 00 00       	mov    $0x0,%eax
  402866:	48 c7 c1 ff ff ff ff 	mov    $0xffffffffffffffff,%rcx
  40286d:	4c 89 ef             	mov    %r13,%rdi
  402870:	f2 ae                	repnz scas %es:(%rdi),%al
  402872:	48 f7 d1             	not    %rcx
  402875:	48 8d 51 ff          	lea    -0x1(%rcx),%rdx
  402879:	4c 89 ee             	mov    %r13,%rsi
  40287c:	89 ef                	mov    %ebp,%edi
  40287e:	e8 b1 f9 ff ff       	callq  402234 <rio_writen>
  402883:	48 83 c4 10          	add    $0x10,%rsp
  402887:	48 85 c0             	test   %rax,%rax
  40288a:	79 6e                	jns    4028fa <submitr+0x428>
  40288c:	48 b8 45 72 72 6f 72 	movabs $0x43203a726f727245,%rax
  402893:	3a 20 43 
  402896:	48 89 03             	mov    %rax,(%rbx)
  402899:	48 b8 6c 69 65 6e 74 	movabs $0x6e7520746e65696c,%rax
  4028a0:	20 75 6e 
  4028a3:	48 89 43 08          	mov    %rax,0x8(%rbx)
  4028a7:	48 b8 61 62 6c 65 20 	movabs $0x206f7420656c6261,%rax
  4028ae:	74 6f 20 
  4028b1:	48 89 43 10          	mov    %rax,0x10(%rbx)
  4028b5:	48 b8 77 72 69 74 65 	movabs $0x6f74206574697277,%rax
  4028bc:	20 74 6f 
  4028bf:	48 89 43 18          	mov    %rax,0x18(%rbx)
  4028c3:	48 b8 20 74 68 65 20 	movabs $0x7365722065687420,%rax
  4028ca:	72 65 73 
  4028cd:	48 89 43 20          	mov    %rax,0x20(%rbx)
  4028d1:	48 b8 75 6c 74 20 73 	movabs $0x7672657320746c75,%rax
  4028d8:	65 72 76 
  4028db:	48 89 43 28          	mov    %rax,0x28(%rbx)
  4028df:	66 c7 43 30 65 72    	movw   $0x7265,0x30(%rbx)
  4028e5:	c6 43 32 00          	movb   $0x0,0x32(%rbx)
  4028e9:	89 ef                	mov    %ebp,%edi
  4028eb:	e8 f0 e3 ff ff       	callq  400ce0 <close@plt>
  4028f0:	b8 ff ff ff ff       	mov    $0xffffffff,%eax
  4028f5:	e9 1e 03 00 00       	jmpq   402c18 <submitr+0x746>
  4028fa:	89 ee                	mov    %ebp,%esi
  4028fc:	48 8d 7c 24 30       	lea    0x30(%rsp),%rdi
  402901:	e8 ee f8 ff ff       	callq  4021f4 <rio_readinitb>
  402906:	ba 00 20 00 00       	mov    $0x2000,%edx
  40290b:	48 8d b4 24 40 20 00 	lea    0x2040(%rsp),%rsi
  402912:	00 
  402913:	48 8d 7c 24 30       	lea    0x30(%rsp),%rdi
  402918:	e8 fe f9 ff ff       	callq  40231b <rio_readlineb>
  40291d:	48 85 c0             	test   %rax,%rax
  402920:	7f 7d                	jg     40299f <submitr+0x4cd>
  402922:	48 b8 45 72 72 6f 72 	movabs $0x43203a726f727245,%rax
  402929:	3a 20 43 
  40292c:	48 89 03             	mov    %rax,(%rbx)
  40292f:	48 b8 6c 69 65 6e 74 	movabs $0x6e7520746e65696c,%rax
  402936:	20 75 6e 
  402939:	48 89 43 08          	mov    %rax,0x8(%rbx)
  40293d:	48 b8 61 62 6c 65 20 	movabs $0x206f7420656c6261,%rax
  402944:	74 6f 20 
  402947:	48 89 43 10          	mov    %rax,0x10(%rbx)
  40294b:	48 b8 72 65 61 64 20 	movabs $0x7269662064616572,%rax
  402952:	66 69 72 
  402955:	48 89 43 18          	mov    %rax,0x18(%rbx)
  402959:	48 b8 73 74 20 68 65 	movabs $0x6564616568207473,%rax
  402960:	61 64 65 
  402963:	48 89 43 20          	mov    %rax,0x20(%rbx)
  402967:	48 b8 72 20 66 72 6f 	movabs $0x72206d6f72662072,%rax
  40296e:	6d 20 72 
  402971:	48 89 43 28          	mov    %rax,0x28(%rbx)
  402975:	48 b8 65 73 75 6c 74 	movabs $0x657320746c757365,%rax
  40297c:	20 73 65 
  40297f:	48 89 43 30          	mov    %rax,0x30(%rbx)
  402983:	c7 43 38 72 76 65 72 	movl   $0x72657672,0x38(%rbx)
  40298a:	c6 43 3c 00          	movb   $0x0,0x3c(%rbx)
  40298e:	89 ef                	mov    %ebp,%edi
  402990:	e8 4b e3 ff ff       	callq  400ce0 <close@plt>
  402995:	b8 ff ff ff ff       	mov    $0xffffffff,%eax
  40299a:	e9 79 02 00 00       	jmpq   402c18 <submitr+0x746>
  40299f:	4c 8d 84 24 40 80 00 	lea    0x8040(%rsp),%r8
  4029a6:	00 
  4029a7:	48 8d 4c 24 1c       	lea    0x1c(%rsp),%rcx
  4029ac:	48 8d 94 24 40 60 00 	lea    0x6040(%rsp),%rdx
  4029b3:	00 
  4029b4:	be af 37 40 00       	mov    $0x4037af,%esi
  4029b9:	48 8d bc 24 40 20 00 	lea    0x2040(%rsp),%rdi
  4029c0:	00 
  4029c1:	b8 00 00 00 00       	mov    $0x0,%eax
  4029c6:	e8 c5 e3 ff ff       	callq  400d90 <__isoc99_sscanf@plt>
  4029cb:	e9 95 00 00 00       	jmpq   402a65 <submitr+0x593>
  4029d0:	ba 00 20 00 00       	mov    $0x2000,%edx
  4029d5:	48 8d b4 24 40 20 00 	lea    0x2040(%rsp),%rsi
  4029dc:	00 
  4029dd:	48 8d 7c 24 30       	lea    0x30(%rsp),%rdi
  4029e2:	e8 34 f9 ff ff       	callq  40231b <rio_readlineb>
  4029e7:	48 85 c0             	test   %rax,%rax
  4029ea:	7f 79                	jg     402a65 <submitr+0x593>
  4029ec:	48 b8 45 72 72 6f 72 	movabs $0x43203a726f727245,%rax
  4029f3:	3a 20 43 
  4029f6:	48 89 03             	mov    %rax,(%rbx)
  4029f9:	48 b8 6c 69 65 6e 74 	movabs $0x6e7520746e65696c,%rax
  402a00:	20 75 6e 
  402a03:	48 89 43 08          	mov    %rax,0x8(%rbx)
  402a07:	48 b8 61 62 6c 65 20 	movabs $0x206f7420656c6261,%rax
  402a0e:	74 6f 20 
  402a11:	48 89 43 10          	mov    %rax,0x10(%rbx)
  402a15:	48 b8 72 65 61 64 20 	movabs $0x6165682064616572,%rax
  402a1c:	68 65 61 
  402a1f:	48 89 43 18          	mov    %rax,0x18(%rbx)
  402a23:	48 b8 64 65 72 73 20 	movabs $0x6f72662073726564,%rax
  402a2a:	66 72 6f 
  402a2d:	48 89 43 20          	mov    %rax,0x20(%rbx)
  402a31:	48 b8 6d 20 74 68 65 	movabs $0x657220656874206d,%rax
  402a38:	20 72 65 
  402a3b:	48 89 43 28          	mov    %rax,0x28(%rbx)
  402a3f:	48 b8 73 75 6c 74 20 	movabs $0x72657320746c7573,%rax
  402a46:	73 65 72 
  402a49:	48 89 43 30          	mov    %rax,0x30(%rbx)
  402a4d:	c7 43 38 76 65 72 00 	movl   $0x726576,0x38(%rbx)
  402a54:	89 ef                	mov    %ebp,%edi
  402a56:	e8 85 e2 ff ff       	callq  400ce0 <close@plt>
  402a5b:	b8 ff ff ff ff       	mov    $0xffffffff,%eax
  402a60:	e9 b3 01 00 00       	jmpq   402c18 <submitr+0x746>
  402a65:	0f b6 94 24 40 20 00 	movzbl 0x2040(%rsp),%edx
  402a6c:	00 
  402a6d:	b8 0d 00 00 00       	mov    $0xd,%eax
  402a72:	29 d0                	sub    %edx,%eax
  402a74:	75 1b                	jne    402a91 <submitr+0x5bf>
  402a76:	0f b6 94 24 41 20 00 	movzbl 0x2041(%rsp),%edx
  402a7d:	00 
  402a7e:	b8 0a 00 00 00       	mov    $0xa,%eax
  402a83:	29 d0                	sub    %edx,%eax
  402a85:	75 0a                	jne    402a91 <submitr+0x5bf>
  402a87:	0f b6 84 24 42 20 00 	movzbl 0x2042(%rsp),%eax
  402a8e:	00 
  402a8f:	f7 d8                	neg    %eax
  402a91:	85 c0                	test   %eax,%eax
  402a93:	0f 85 37 ff ff ff    	jne    4029d0 <submitr+0x4fe>
  402a99:	ba 00 20 00 00       	mov    $0x2000,%edx
  402a9e:	48 8d b4 24 40 20 00 	lea    0x2040(%rsp),%rsi
  402aa5:	00 
  402aa6:	48 8d 7c 24 30       	lea    0x30(%rsp),%rdi
  402aab:	e8 6b f8 ff ff       	callq  40231b <rio_readlineb>
  402ab0:	48 85 c0             	test   %rax,%rax
  402ab3:	0f 8f 83 00 00 00    	jg     402b3c <submitr+0x66a>
  402ab9:	48 b8 45 72 72 6f 72 	movabs $0x43203a726f727245,%rax
  402ac0:	3a 20 43 
  402ac3:	48 89 03             	mov    %rax,(%rbx)
  402ac6:	48 b8 6c 69 65 6e 74 	movabs $0x6e7520746e65696c,%rax
  402acd:	20 75 6e 
  402ad0:	48 89 43 08          	mov    %rax,0x8(%rbx)
  402ad4:	48 b8 61 62 6c 65 20 	movabs $0x206f7420656c6261,%rax
  402adb:	74 6f 20 
  402ade:	48 89 43 10          	mov    %rax,0x10(%rbx)
  402ae2:	48 b8 72 65 61 64 20 	movabs $0x6174732064616572,%rax
  402ae9:	73 74 61 
  402aec:	48 89 43 18          	mov    %rax,0x18(%rbx)
  402af0:	48 b8 74 75 73 20 6d 	movabs $0x7373656d20737574,%rax
  402af7:	65 73 73 
  402afa:	48 89 43 20          	mov    %rax,0x20(%rbx)
  402afe:	48 b8 61 67 65 20 66 	movabs $0x6d6f726620656761,%rax
  402b05:	72 6f 6d 
  402b08:	48 89 43 28          	mov    %rax,0x28(%rbx)
  402b0c:	48 b8 20 72 65 73 75 	movabs $0x20746c7573657220,%rax
  402b13:	6c 74 20 
  402b16:	48 89 43 30          	mov    %rax,0x30(%rbx)
  402b1a:	c7 43 38 73 65 72 76 	movl   $0x76726573,0x38(%rbx)
  402b21:	66 c7 43 3c 65 72    	movw   $0x7265,0x3c(%rbx)
  402b27:	c6 43 3e 00          	movb   $0x0,0x3e(%rbx)
  402b2b:	89 ef                	mov    %ebp,%edi
  402b2d:	e8 ae e1 ff ff       	callq  400ce0 <close@plt>
  402b32:	b8 ff ff ff ff       	mov    $0xffffffff,%eax
  402b37:	e9 dc 00 00 00       	jmpq   402c18 <submitr+0x746>
  402b3c:	44 8b 44 24 1c       	mov    0x1c(%rsp),%r8d
  402b41:	41 81 f8 c8 00 00 00 	cmp    $0xc8,%r8d
  402b48:	74 37                	je     402b81 <submitr+0x6af>
  402b4a:	4c 8d 8c 24 40 80 00 	lea    0x8040(%rsp),%r9
  402b51:	00 
  402b52:	b9 78 37 40 00       	mov    $0x403778,%ecx
  402b57:	48 c7 c2 ff ff ff ff 	mov    $0xffffffffffffffff,%rdx
  402b5e:	be 01 00 00 00       	mov    $0x1,%esi
  402b63:	48 89 df             	mov    %rbx,%rdi
  402b66:	b8 00 00 00 00       	mov    $0x0,%eax
  402b6b:	e8 c0 e2 ff ff       	callq  400e30 <__sprintf_chk@plt>
  402b70:	89 ef                	mov    %ebp,%edi
  402b72:	e8 69 e1 ff ff       	callq  400ce0 <close@plt>
  402b77:	b8 ff ff ff ff       	mov    $0xffffffff,%eax
  402b7c:	e9 97 00 00 00       	jmpq   402c18 <submitr+0x746>
  402b81:	48 8d b4 24 40 20 00 	lea    0x2040(%rsp),%rsi
  402b88:	00 
  402b89:	48 89 df             	mov    %rbx,%rdi
  402b8c:	e8 df e0 ff ff       	callq  400c70 <strcpy@plt>
  402b91:	89 ef                	mov    %ebp,%edi
  402b93:	e8 48 e1 ff ff       	callq  400ce0 <close@plt>
  402b98:	0f b6 03             	movzbl (%rbx),%eax
  402b9b:	ba 4f 00 00 00       	mov    $0x4f,%edx
  402ba0:	29 c2                	sub    %eax,%edx
  402ba2:	75 22                	jne    402bc6 <submitr+0x6f4>
  402ba4:	0f b6 4b 01          	movzbl 0x1(%rbx),%ecx
  402ba8:	b8 4b 00 00 00       	mov    $0x4b,%eax
  402bad:	29 c8                	sub    %ecx,%eax
  402baf:	75 17                	jne    402bc8 <submitr+0x6f6>
  402bb1:	0f b6 4b 02          	movzbl 0x2(%rbx),%ecx
  402bb5:	b8 0a 00 00 00       	mov    $0xa,%eax
  402bba:	29 c8                	sub    %ecx,%eax
  402bbc:	75 0a                	jne    402bc8 <submitr+0x6f6>
  402bbe:	0f b6 43 03          	movzbl 0x3(%rbx),%eax
  402bc2:	f7 d8                	neg    %eax
  402bc4:	eb 02                	jmp    402bc8 <submitr+0x6f6>
  402bc6:	89 d0                	mov    %edx,%eax
  402bc8:	85 c0                	test   %eax,%eax
  402bca:	74 40                	je     402c0c <submitr+0x73a>
  402bcc:	bf c0 37 40 00       	mov    $0x4037c0,%edi
  402bd1:	b9 05 00 00 00       	mov    $0x5,%ecx
  402bd6:	48 89 de             	mov    %rbx,%rsi
  402bd9:	f3 a6                	repz cmpsb %es:(%rdi),%ds:(%rsi)
  402bdb:	0f 97 c0             	seta   %al
  402bde:	0f 92 c1             	setb   %cl
  402be1:	29 c8                	sub    %ecx,%eax
  402be3:	0f be c0             	movsbl %al,%eax
  402be6:	85 c0                	test   %eax,%eax
  402be8:	74 2e                	je     402c18 <submitr+0x746>
  402bea:	85 d2                	test   %edx,%edx
  402bec:	75 13                	jne    402c01 <submitr+0x72f>
  402bee:	0f b6 43 01          	movzbl 0x1(%rbx),%eax
  402bf2:	ba 4b 00 00 00       	mov    $0x4b,%edx
  402bf7:	29 c2                	sub    %eax,%edx
  402bf9:	75 06                	jne    402c01 <submitr+0x72f>
  402bfb:	0f b6 53 02          	movzbl 0x2(%rbx),%edx
  402bff:	f7 da                	neg    %edx
  402c01:	85 d2                	test   %edx,%edx
  402c03:	75 0e                	jne    402c13 <submitr+0x741>
  402c05:	b8 00 00 00 00       	mov    $0x0,%eax
  402c0a:	eb 0c                	jmp    402c18 <submitr+0x746>
  402c0c:	b8 00 00 00 00       	mov    $0x0,%eax
  402c11:	eb 05                	jmp    402c18 <submitr+0x746>
  402c13:	b8 ff ff ff ff       	mov    $0xffffffff,%eax
  402c18:	48 8b 9c 24 48 a0 00 	mov    0xa048(%rsp),%rbx
  402c1f:	00 
  402c20:	64 48 33 1c 25 28 00 	xor    %fs:0x28,%rbx
  402c27:	00 00 
  402c29:	74 05                	je     402c30 <submitr+0x75e>
  402c2b:	e8 70 e0 ff ff       	callq  400ca0 <__stack_chk_fail@plt>
  402c30:	48 81 c4 58 a0 00 00 	add    $0xa058,%rsp
  402c37:	5b                   	pop    %rbx
  402c38:	5d                   	pop    %rbp
  402c39:	41 5c                	pop    %r12
  402c3b:	41 5d                	pop    %r13
  402c3d:	41 5e                	pop    %r14
  402c3f:	41 5f                	pop    %r15
  402c41:	c3                   	retq   

0000000000402c42 <init_timeout>:
  402c42:	85 ff                	test   %edi,%edi
  402c44:	74 23                	je     402c69 <init_timeout+0x27>
  402c46:	53                   	push   %rbx
  402c47:	89 fb                	mov    %edi,%ebx
  402c49:	85 ff                	test   %edi,%edi
  402c4b:	79 05                	jns    402c52 <init_timeout+0x10>
  402c4d:	bb 00 00 00 00       	mov    $0x0,%ebx
  402c52:	be 06 22 40 00       	mov    $0x402206,%esi
  402c57:	bf 0e 00 00 00       	mov    $0xe,%edi
  402c5c:	e8 af e0 ff ff       	callq  400d10 <signal@plt>
  402c61:	89 df                	mov    %ebx,%edi
  402c63:	e8 68 e0 ff ff       	callq  400cd0 <alarm@plt>
  402c68:	5b                   	pop    %rbx
  402c69:	f3 c3                	repz retq 

0000000000402c6b <init_driver>:
  402c6b:	55                   	push   %rbp
  402c6c:	53                   	push   %rbx
  402c6d:	48 83 ec 28          	sub    $0x28,%rsp
  402c71:	48 89 fd             	mov    %rdi,%rbp
  402c74:	64 48 8b 04 25 28 00 	mov    %fs:0x28,%rax
  402c7b:	00 00 
  402c7d:	48 89 44 24 18       	mov    %rax,0x18(%rsp)
  402c82:	31 c0                	xor    %eax,%eax
  402c84:	be 01 00 00 00       	mov    $0x1,%esi
  402c89:	bf 0d 00 00 00       	mov    $0xd,%edi
  402c8e:	e8 7d e0 ff ff       	callq  400d10 <signal@plt>
  402c93:	be 01 00 00 00       	mov    $0x1,%esi
  402c98:	bf 1d 00 00 00       	mov    $0x1d,%edi
  402c9d:	e8 6e e0 ff ff       	callq  400d10 <signal@plt>
  402ca2:	be 01 00 00 00       	mov    $0x1,%esi
  402ca7:	bf 1d 00 00 00       	mov    $0x1d,%edi
  402cac:	e8 5f e0 ff ff       	callq  400d10 <signal@plt>
  402cb1:	ba 00 00 00 00       	mov    $0x0,%edx
  402cb6:	be 01 00 00 00       	mov    $0x1,%esi
  402cbb:	bf 02 00 00 00       	mov    $0x2,%edi
  402cc0:	e8 7b e1 ff ff       	callq  400e40 <socket@plt>
  402cc5:	85 c0                	test   %eax,%eax
  402cc7:	79 4f                	jns    402d18 <init_driver+0xad>
  402cc9:	48 b8 45 72 72 6f 72 	movabs $0x43203a726f727245,%rax
  402cd0:	3a 20 43 
  402cd3:	48 89 45 00          	mov    %rax,0x0(%rbp)
  402cd7:	48 b8 6c 69 65 6e 74 	movabs $0x6e7520746e65696c,%rax
  402cde:	20 75 6e 
  402ce1:	48 89 45 08          	mov    %rax,0x8(%rbp)
  402ce5:	48 b8 61 62 6c 65 20 	movabs $0x206f7420656c6261,%rax
  402cec:	74 6f 20 
  402cef:	48 89 45 10          	mov    %rax,0x10(%rbp)
  402cf3:	48 b8 63 72 65 61 74 	movabs $0x7320657461657263,%rax
  402cfa:	65 20 73 
  402cfd:	48 89 45 18          	mov    %rax,0x18(%rbp)
  402d01:	c7 45 20 6f 63 6b 65 	movl   $0x656b636f,0x20(%rbp)
  402d08:	66 c7 45 24 74 00    	movw   $0x74,0x24(%rbp)
  402d0e:	b8 ff ff ff ff       	mov    $0xffffffff,%eax
  402d13:	e9 2a 01 00 00       	jmpq   402e42 <init_driver+0x1d7>
  402d18:	89 c3                	mov    %eax,%ebx
  402d1a:	bf c5 37 40 00       	mov    $0x4037c5,%edi
  402d1f:	e8 fc df ff ff       	callq  400d20 <gethostbyname@plt>
  402d24:	48 85 c0             	test   %rax,%rax
  402d27:	75 68                	jne    402d91 <init_driver+0x126>
  402d29:	48 b8 45 72 72 6f 72 	movabs $0x44203a726f727245,%rax
  402d30:	3a 20 44 
  402d33:	48 89 45 00          	mov    %rax,0x0(%rbp)
  402d37:	48 b8 4e 53 20 69 73 	movabs $0x6e7520736920534e,%rax
  402d3e:	20 75 6e 
  402d41:	48 89 45 08          	mov    %rax,0x8(%rbp)
  402d45:	48 b8 61 62 6c 65 20 	movabs $0x206f7420656c6261,%rax
  402d4c:	74 6f 20 
  402d4f:	48 89 45 10          	mov    %rax,0x10(%rbp)
  402d53:	48 b8 72 65 73 6f 6c 	movabs $0x2065766c6f736572,%rax
  402d5a:	76 65 20 
  402d5d:	48 89 45 18          	mov    %rax,0x18(%rbp)
  402d61:	48 b8 73 65 72 76 65 	movabs $0x6120726576726573,%rax
  402d68:	72 20 61 
  402d6b:	48 89 45 20          	mov    %rax,0x20(%rbp)
  402d6f:	c7 45 28 64 64 72 65 	movl   $0x65726464,0x28(%rbp)
  402d76:	66 c7 45 2c 73 73    	movw   $0x7373,0x2c(%rbp)
  402d7c:	c6 45 2e 00          	movb   $0x0,0x2e(%rbp)
  402d80:	89 df                	mov    %ebx,%edi
  402d82:	e8 59 df ff ff       	callq  400ce0 <close@plt>
  402d87:	b8 ff ff ff ff       	mov    $0xffffffff,%eax
  402d8c:	e9 b1 00 00 00       	jmpq   402e42 <init_driver+0x1d7>
  402d91:	48 c7 04 24 00 00 00 	movq   $0x0,(%rsp)
  402d98:	00 
  402d99:	48 c7 44 24 08 00 00 	movq   $0x0,0x8(%rsp)
  402da0:	00 00 
  402da2:	66 c7 04 24 02 00    	movw   $0x2,(%rsp)
  402da8:	48 63 50 14          	movslq 0x14(%rax),%rdx
  402dac:	48 8b 40 18          	mov    0x18(%rax),%rax
  402db0:	48 8b 30             	mov    (%rax),%rsi
  402db3:	48 8d 7c 24 04       	lea    0x4(%rsp),%rdi
  402db8:	b9 0c 00 00 00       	mov    $0xc,%ecx
  402dbd:	e8 6e df ff ff       	callq  400d30 <__memmove_chk@plt>
  402dc2:	66 c7 44 24 02 3c 9a 	movw   $0x9a3c,0x2(%rsp)
  402dc9:	ba 10 00 00 00       	mov    $0x10,%edx
  402dce:	48 89 e6             	mov    %rsp,%rsi
  402dd1:	89 df                	mov    %ebx,%edi
  402dd3:	e8 38 e0 ff ff       	callq  400e10 <connect@plt>
  402dd8:	85 c0                	test   %eax,%eax
  402dda:	79 50                	jns    402e2c <init_driver+0x1c1>
  402ddc:	48 b8 45 72 72 6f 72 	movabs $0x55203a726f727245,%rax
  402de3:	3a 20 55 
  402de6:	48 89 45 00          	mov    %rax,0x0(%rbp)
  402dea:	48 b8 6e 61 62 6c 65 	movabs $0x6f7420656c62616e,%rax
  402df1:	20 74 6f 
  402df4:	48 89 45 08          	mov    %rax,0x8(%rbp)
  402df8:	48 b8 20 63 6f 6e 6e 	movabs $0x7463656e6e6f6320,%rax
  402dff:	65 63 74 
  402e02:	48 89 45 10          	mov    %rax,0x10(%rbp)
  402e06:	48 b8 20 74 6f 20 73 	movabs $0x76726573206f7420,%rax
  402e0d:	65 72 76 
  402e10:	48 89 45 18          	mov    %rax,0x18(%rbp)
  402e14:	66 c7 45 20 65 72    	movw   $0x7265,0x20(%rbp)
  402e1a:	c6 45 22 00          	movb   $0x0,0x22(%rbp)
  402e1e:	89 df                	mov    %ebx,%edi
  402e20:	e8 bb de ff ff       	callq  400ce0 <close@plt>
  402e25:	b8 ff ff ff ff       	mov    $0xffffffff,%eax
  402e2a:	eb 16                	jmp    402e42 <init_driver+0x1d7>
  402e2c:	89 df                	mov    %ebx,%edi
  402e2e:	e8 ad de ff ff       	callq  400ce0 <close@plt>
  402e33:	66 c7 45 00 4f 4b    	movw   $0x4b4f,0x0(%rbp)
  402e39:	c6 45 02 00          	movb   $0x0,0x2(%rbp)
  402e3d:	b8 00 00 00 00       	mov    $0x0,%eax
  402e42:	48 8b 4c 24 18       	mov    0x18(%rsp),%rcx
  402e47:	64 48 33 0c 25 28 00 	xor    %fs:0x28,%rcx
  402e4e:	00 00 
  402e50:	74 05                	je     402e57 <init_driver+0x1ec>
  402e52:	e8 49 de ff ff       	callq  400ca0 <__stack_chk_fail@plt>
  402e57:	48 83 c4 28          	add    $0x28,%rsp
  402e5b:	5b                   	pop    %rbx
  402e5c:	5d                   	pop    %rbp
  402e5d:	c3                   	retq   

0000000000402e5e <driver_post>:
  402e5e:	53                   	push   %rbx
  402e5f:	4c 89 cb             	mov    %r9,%rbx
  402e62:	45 85 c0             	test   %r8d,%r8d
  402e65:	74 27                	je     402e8e <driver_post+0x30>
  402e67:	48 89 ca             	mov    %rcx,%rdx
  402e6a:	be d9 37 40 00       	mov    $0x4037d9,%esi
  402e6f:	bf 01 00 00 00       	mov    $0x1,%edi
  402e74:	b8 00 00 00 00       	mov    $0x0,%eax
  402e79:	e8 32 df ff ff       	callq  400db0 <__printf_chk@plt>
  402e7e:	66 c7 03 4f 4b       	movw   $0x4b4f,(%rbx)
  402e83:	c6 43 02 00          	movb   $0x0,0x2(%rbx)
  402e87:	b8 00 00 00 00       	mov    $0x0,%eax
  402e8c:	eb 3f                	jmp    402ecd <driver_post+0x6f>
  402e8e:	48 85 ff             	test   %rdi,%rdi
  402e91:	74 2c                	je     402ebf <driver_post+0x61>
  402e93:	80 3f 00             	cmpb   $0x0,(%rdi)
  402e96:	74 27                	je     402ebf <driver_post+0x61>
  402e98:	48 83 ec 08          	sub    $0x8,%rsp
  402e9c:	41 51                	push   %r9
  402e9e:	49 89 c9             	mov    %rcx,%r9
  402ea1:	49 89 d0             	mov    %rdx,%r8
  402ea4:	48 89 f9             	mov    %rdi,%rcx
  402ea7:	48 89 f2             	mov    %rsi,%rdx
  402eaa:	be 9a 3c 00 00       	mov    $0x3c9a,%esi
  402eaf:	bf c5 37 40 00       	mov    $0x4037c5,%edi
  402eb4:	e8 19 f6 ff ff       	callq  4024d2 <submitr>
  402eb9:	48 83 c4 10          	add    $0x10,%rsp
  402ebd:	eb 0e                	jmp    402ecd <driver_post+0x6f>
  402ebf:	66 c7 03 4f 4b       	movw   $0x4b4f,(%rbx)
  402ec4:	c6 43 02 00          	movb   $0x0,0x2(%rbx)
  402ec8:	b8 00 00 00 00       	mov    $0x0,%eax
  402ecd:	5b                   	pop    %rbx
  402ece:	c3                   	retq   

0000000000402ecf <check>:
  402ecf:	89 f8                	mov    %edi,%eax
  402ed1:	c1 e8 1c             	shr    $0x1c,%eax
  402ed4:	85 c0                	test   %eax,%eax
  402ed6:	74 1d                	je     402ef5 <check+0x26>
  402ed8:	b9 00 00 00 00       	mov    $0x0,%ecx
  402edd:	eb 0b                	jmp    402eea <check+0x1b>
  402edf:	89 f8                	mov    %edi,%eax
  402ee1:	d3 e8                	shr    %cl,%eax
  402ee3:	3c 0a                	cmp    $0xa,%al
  402ee5:	74 14                	je     402efb <check+0x2c>
  402ee7:	83 c1 08             	add    $0x8,%ecx
  402eea:	83 f9 1f             	cmp    $0x1f,%ecx
  402eed:	7e f0                	jle    402edf <check+0x10>
  402eef:	b8 01 00 00 00       	mov    $0x1,%eax
  402ef4:	c3                   	retq   
  402ef5:	b8 00 00 00 00       	mov    $0x0,%eax
  402efa:	c3                   	retq   
  402efb:	b8 00 00 00 00       	mov    $0x0,%eax
  402f00:	c3                   	retq   

0000000000402f01 <gencookie>:
  402f01:	53                   	push   %rbx
  402f02:	83 c7 01             	add    $0x1,%edi
  402f05:	e8 46 dd ff ff       	callq  400c50 <srandom@plt>
  402f0a:	e8 61 de ff ff       	callq  400d70 <random@plt>
  402f0f:	89 c3                	mov    %eax,%ebx
  402f11:	89 c7                	mov    %eax,%edi
  402f13:	e8 b7 ff ff ff       	callq  402ecf <check>
  402f18:	85 c0                	test   %eax,%eax
  402f1a:	74 ee                	je     402f0a <gencookie+0x9>
  402f1c:	89 d8                	mov    %ebx,%eax
  402f1e:	5b                   	pop    %rbx
  402f1f:	c3                   	retq   

0000000000402f20 <__libc_csu_init>:
  402f20:	41 57                	push   %r15
  402f22:	41 56                	push   %r14
  402f24:	41 89 ff             	mov    %edi,%r15d
  402f27:	41 55                	push   %r13
  402f29:	41 54                	push   %r12
  402f2b:	4c 8d 25 de 1e 20 00 	lea    0x201ede(%rip),%r12        # 604e10 <__frame_dummy_init_array_entry>
  402f32:	55                   	push   %rbp
  402f33:	48 8d 2d de 1e 20 00 	lea    0x201ede(%rip),%rbp        # 604e18 <__init_array_end>
  402f3a:	53                   	push   %rbx
  402f3b:	49 89 f6             	mov    %rsi,%r14
  402f3e:	49 89 d5             	mov    %rdx,%r13
  402f41:	4c 29 e5             	sub    %r12,%rbp
  402f44:	48 83 ec 08          	sub    $0x8,%rsp
  402f48:	48 c1 fd 03          	sar    $0x3,%rbp
  402f4c:	e8 b7 dc ff ff       	callq  400c08 <_init>
  402f51:	48 85 ed             	test   %rbp,%rbp
  402f54:	74 20                	je     402f76 <__libc_csu_init+0x56>
  402f56:	31 db                	xor    %ebx,%ebx
  402f58:	0f 1f 84 00 00 00 00 	nopl   0x0(%rax,%rax,1)
  402f5f:	00 
  402f60:	4c 89 ea             	mov    %r13,%rdx
  402f63:	4c 89 f6             	mov    %r14,%rsi
  402f66:	44 89 ff             	mov    %r15d,%edi
  402f69:	41 ff 14 dc          	callq  *(%r12,%rbx,8)
  402f6d:	48 83 c3 01          	add    $0x1,%rbx
  402f71:	48 39 eb             	cmp    %rbp,%rbx
  402f74:	75 ea                	jne    402f60 <__libc_csu_init+0x40>
  402f76:	48 83 c4 08          	add    $0x8,%rsp
  402f7a:	5b                   	pop    %rbx
  402f7b:	5d                   	pop    %rbp
  402f7c:	41 5c                	pop    %r12
  402f7e:	41 5d                	pop    %r13
  402f80:	41 5e                	pop    %r14
  402f82:	41 5f                	pop    %r15
  402f84:	c3                   	retq   
  402f85:	90                   	nop
  402f86:	66 2e 0f 1f 84 00 00 	nopw   %cs:0x0(%rax,%rax,1)
  402f8d:	00 00 00 

0000000000402f90 <__libc_csu_fini>:
  402f90:	f3 c3                	repz retq 

Disassembly of section .fini:

0000000000402f94 <_fini>:
  402f94:	48 83 ec 08          	sub    $0x8,%rsp
  402f98:	48 83 c4 08          	add    $0x8,%rsp
  402f9c:	c3                   	retq   
